Warning[w6]: Type conflict for external/entry "alarm_sms", in module ota against external/entry in module alarms; prototyped function vs K&R function
  /* In module ota: */
  /* K&R Function, args 0, attr 0 */
  int (__cc_version2 alarm_sms)();
  /* In module alarms: */
  /* Function, args 2, attr 0 */
  void (__cc_version2 alarm_sms)(uint8_t,
                                 long);
    typedef unsigned char uint8_t;
Warning[w6]: Type conflict for external/entry "batt_getlevel", in module ota against external/entry in module battery; function return types are different; different basic types
  /* In module ota: */
  /* K&R Function, args 0, attr 0 */
  int (__cc_version2 batt_getlevel)();
  /* In module battery: */
  /* K&R Function, args 0, attr 0 */
  uint8_t (__cc_version2 batt_getlevel)();
    typedef unsigned char uint8_t;
Warning[w6]: Type conflict for external/entry "batt_getlevel", in module debug against external/entry in module battery; function return types are different; different basic types
  /* In module debug: */
  /* K&R Function, args 0, attr 0 */
  int (__cc_version2 batt_getlevel)();
  /* In module battery: */
  /* K&R Function, args 0, attr 0 */
  uint8_t (__cc_version2 batt_getlevel)();
    typedef unsigned char uint8_t;
Warning[w6]: Type conflict for external/entry "batt_voltage", in module device_alarms against external/entry in module battery; function return types are different; different basic types
  /* In module device_alarms: */
  /* K&R Function, args 0, attr 0 */
  int (__cc_version2 batt_voltage)();
  /* In module battery: */
  /* K&R Function, args 0, attr 0 */
  uint16_t (__cc_version2 batt_voltage)();
    typedef unsigned int uint16_t;
Warning[w6]: Type conflict for external/entry "check_batt_state", in module events against external/entry in module battery; function return types are different; different basic types
  /* In module events: */
  /* K&R Function, args 0, attr 0 */
  int (__cc_version2 check_batt_state)();
  /* In module battery: */
  /* K&R Function, args 0, attr 0 */
  void (__cc_version2 check_batt_state)();
Warning[w6]: Type conflict for external/entry "config_parse_configuration_http", in module sms against external/entry in module config; prototyped function vs K&R function
  /* In module sms: */
  /* K&R Function, args 0, attr 0 */
  int (__cc_version2 config_parse_configuration_http)();
  /* In module config: */
  /* Function, args 0, attr 0 */
  int (__cc_version2 config_parse_configuration_http)(void);
Warning[w6]: Type conflict for external/entry "g_pSysCfg", in module ota against external/entry in module config; class/struct/union types have different sizes
  /* In module ota: */
  CONFIG_SYSTEM * g_pSysCfg;
    typedef struct __Unnamed_45_124 CONFIG_SYSTEM;
  /* In module config: */
  CONFIG_SYSTEM * g_pSysCfg;
    typedef struct __Unnamed_8_329 CONFIG_SYSTEM;
Warning[w6]: Type conflict for external/entry "config_load_profile", in module config against external/entry in module config_profiles; function types differ in parameter 1; class/struct/union types have different sizes
  /* In module config: */
  /* Function, args 1, attr 0 */
  void (__cc_version2 config_load_profile)(ConfigProfile);
    typedef ConfigEntry const * ConfigProfile;
    typedef CONFIG_ENTRY const * ConfigEntry;
    typedef struct __Unnamed_8_248 CONFIG_ENTRY;
  /* In module config_profiles: */
  /* Function, args 1, attr 0 */
  void (__cc_version2 config_load_profile)(ConfigProfile);
    typedef ConfigEntry const * ConfigProfile;
    typedef CONFIG_ENTRY const * ConfigEntry;
    typedef struct __Unnamed_9_191 CONFIG_ENTRY;
Warning[w6]: Type conflict for external/entry "g_DefaultConfigProfile", in module config against external/entry in module config_profiles; class/struct/union types have different sizes
  /* In module config: */
  ConfigProfile const g_DefaultConfigProfile;
    typedef ConfigEntry const * ConfigProfile;
    typedef CONFIG_ENTRY const * ConfigEntry;
    typedef struct __Unnamed_8_248 CONFIG_ENTRY;
  /* In module config_profiles: */
  ConfigProfile const g_DefaultConfigProfile;
    typedef ConfigEntry const * ConfigProfile;
    typedef CONFIG_ENTRY const * ConfigEntry;
    typedef struct __Unnamed_9_191 CONFIG_ENTRY;
Warning[w6]: Type conflict for external/entry "g_ServiceModeConfigProfile", in module config against external/entry in module config_profiles; class/struct/union types have different sizes
  /* In module config: */
  ConfigProfile const g_ServiceModeConfigProfile;
    typedef ConfigEntry const * ConfigProfile;
    typedef CONFIG_ENTRY const * ConfigEntry;
    typedef struct __Unnamed_8_248 CONFIG_ENTRY;
  /* In module config_profiles: */
  ConfigProfile const g_ServiceModeConfigProfile;
    typedef ConfigEntry const * ConfigProfile;
    typedef CONFIG_ENTRY const * ConfigEntry;
    typedef struct __Unnamed_9_191 CONFIG_ENTRY;
Warning[w6]: Type conflict for external/entry "crc_get", in module fridge_data against external/entry in module crc; prototyped function vs K&R function
  /* In module fridge_data: */
  /* K&R Function, args 0, attr 0 */
  int (__cc_version2 crc_get)();
  /* In module crc: */
  /* Function, args 3, attr 0 */
  uint16_t (__cc_version2 crc_get)(char *,
                                   int,
                                   uint16_t);
    typedef unsigned int uint16_t;
Warning[w6]: Type conflict for external/entry "check_diagnosis_command", in module main_system against external/entry in module debug; function return types are different; different basic types
  /* In module main_system: */
  /* K&R Function, args 0, attr 0 */
  int (__cc_version2 check_diagnosis_command)();
  /* In module debug: */
  /* K&R Function, args 0, attr 0 */
  uint8_t (__cc_version2 check_diagnosis_command)();
    typedef unsigned char uint8_t;
Warning[w6]: Type conflict for external/entry "debug_print", in module sms against external/entry in module debug; prototyped function vs K&R function
  /* In module sms: */
  /* K&R Function, args 0, attr 0 */
  int (__cc_version2 debug_print)();
  /* In module debug: */
  /* Function, args 1, attr 0 */
  void (__cc_version2 debug_print)(char *);
Warning[w6]: Type conflict for external/entry "debug_print", in module modem against external/entry in module debug; prototyped function vs K&R function
  /* In module modem: */
  /* K&R Function, args 0, attr 0 */
  int (__cc_version2 debug_print)();
  /* In module debug: */
  /* Function, args 1, attr 0 */
  void (__cc_version2 debug_print)(char *);
Warning[w6]: Type conflict for external/entry "debug_print", in module battery against external/entry in module debug; prototyped function vs K&R function
  /* In module battery: */
  /* K&R Function, args 0, attr 0 */
  int (__cc_version2 debug_print)();
  /* In module debug: */
  /* Function, args 1, attr 0 */
  void (__cc_version2 debug_print)(char *);
Warning[w6]: Type conflict for external/entry "disable_diagnosis", in module events against external/entry in module debug; function return types are different; different basic types
  /* In module events: */
  /* K&R Function, args 0, attr 0 */
  int (__cc_version2 disable_diagnosis)();
  /* In module debug: */
  /* K&R Function, args 0, attr 0 */
  void (__cc_version2 disable_diagnosis)();
Warning[w6]: Type conflict for external/entry "enable_diagnosis", in module events against external/entry in module debug; function return types are different; different basic types
  /* In module events: */
  /* K&R Function, args 0, attr 0 */
  int (__cc_version2 enable_diagnosis)();
  /* In module debug: */
  /* K&R Function, args 0, attr 0 */
  void (__cc_version2 enable_diagnosis)();
Warning[w6]: Type conflict for external/entry "parse_diag_command", in module main_system against external/entry in module debug; function return types are different; different basic types
  /* In module main_system: */
  /* K&R Function, args 0, attr 0 */
  int (__cc_version2 parse_diag_command)();
  /* In module debug: */
  /* K&R Function, args 0, attr 0 */
  unsigned char (__cc_version2 parse_diag_command)();
Warning[w6]: Type conflict for external/entry "alarm_packet", in module ota against external/entry in module device_alarms; prototyped function vs K&R function
  /* In module ota: */
  /* K&R Function, args 0, attr 0 */
  int (__cc_version2 alarm_packet)();
  /* In module device_alarms: */
  /* Function, args 1, attr 0 */
  void (__cc_version2 alarm_packet)(char *);
Warning[w6]: Type conflict for external/entry "check_battery_alarm", in module events against external/entry in module device_alarms; function return types are different; different basic types
  /* In module events: */
  /* K&R Function, args 0, attr 0 */
  int (__cc_version2 check_battery_alarm)();
  /* In module device_alarms: */
  /* K&R Function, args 0, attr 0 */
  void (__cc_version2 check_battery_alarm)();
Warning[w6]: Type conflict for external/entry "check_sensor_alarm", in module events against external/entry in module device_alarms; function return types are different; different basic types
  /* In module events: */
  /* K&R Function, args 0, attr 0 */
  int (__cc_version2 check_sensor_alarm)();
  /* In module device_alarms: */
  /* K&R Function, args 0, attr 0 */
  void (__cc_version2 check_sensor_alarm)();
Warning[w6]: Type conflict for external/entry "read_alarm_packets", in module events against external/entry in module device_alarms; function return types are different; different basic types
  /* In module events: */
  /* K&R Function, args 0, attr 0 */
  int (__cc_version2 read_alarm_packets)();
  /* In module device_alarms: */
  /* K&R Function, args 0, attr 0 */
  void (__cc_version2 read_alarm_packets)();
Warning[w6]: Type conflict for external/entry "encode_value", in module packet_format against external/entry in module encode; prototyped function vs K&R function
  /* In module packet_format: */
  /* K&R Function, args 0, attr 0 */
  int (__cc_version2 encode_value)();
  /* In module encode: */
  /* Function, args 2, attr 0 */
  void (__cc_version2 encode_value)(char *,
                                    char *);
Warning[w6]: Type conflict for external/entry "file_system", in module modem against external/entry in module file_system; prototyped function vs K&R function
  /* In module modem: */
  /* K&R Function, args 0, attr 0 */
  int (__cc_version2 file_system)();
  /* In module file_system: */
  /* Function, args 0, attr 0 */
  void (__cc_version2 file_system)(void);
Warning[w6]: Type conflict for external/entry "check_data_crc", in module fridge_uart against external/entry in module fridge_data; function return types are different; different basic types
  /* In module fridge_uart: */
  /* K&R Function, args 0, attr 0 */
  int (__cc_version2 check_data_crc)();
  /* In module fridge_data: */
  /* K&R Function, args 0, attr 0 */
  void (__cc_version2 check_data_crc)();
Warning[w6]: Type conflict for external/entry "fridge_sampled_data", in module modem against external/entry in module fridge_data; function return types are different; different basic types
  /* In module modem: */
  /* K&R Function, args 0, attr 0 */
  int (__cc_version2 fridge_sampled_data)();
  /* In module fridge_data: */
  /* K&R Function, args 0, attr 0 */
  bool (__cc_version2 fridge_sampled_data)();
Warning[w6]: Type conflict for external/entry "atoi", in module sms against external/entry in module http; prototyped function vs K&R function
  /* In module sms: */
  /* K&R Function, args 0, attr 0 */
  int (__cc_version2 atoi)();
  /* In module http: */
  /* Function, args 1, attr 0 */
  int (__cc_version2 atoi)(char const *);
Warning[w6]: Type conflict for external/entry "i2c_read", in module temperature against external/entry in module i2c; prototyped function vs K&R function
  /* In module temperature: */
  /* K&R Function, args 0, attr 0 */
  int (__cc_version2 i2c_read)();
  /* In module i2c: */
  /* Function, args 4, attr 0 */
  void (__cc_version2 i2c_read)(uint8_t,
                                uint8_t,
                                uint8_t,
                                uint8_t *);
    typedef unsigned char uint8_t;
Warning[w6]: Type conflict for external/entry "check_internet", in module debug against external/entry in module modem; function return types are different; different basic types
  /* In module debug: */
  /* K&R Function, args 0, attr 0 */
  int (__cc_version2 check_internet)();
  /* In module modem: */
  /* K&R Function, args 0, attr 0 */
  unsigned char (__cc_version2 check_internet)();
Warning[w6]: Type conflict for external/entry "check_radio_signal", in module debug against external/entry in module modem; function return types are different; different basic types
  /* In module debug: */
  /* K&R Function, args 0, attr 0 */
  int (__cc_version2 check_radio_signal)();
  /* In module modem: */
  /* K&R Function, args 0, attr 0 */
  void (__cc_version2 check_radio_signal)();
Warning[w6]: Type conflict for external/entry "send_data", in module fridge_data against external/entry in module modem; prototyped function vs K&R function
  /* In module fridge_data: */
  /* K&R Function, args 0, attr 0 */
  unsigned char (__cc_version2 send_data)();
  /* In module modem: */
  /* Function, args 1, attr 0 */
  unsigned char (__cc_version2 send_data)(char *);
Warning[w6]: Type conflict for external/entry "atoi", in module sms against external/entry in module modem; prototyped function vs K&R function
  /* In module sms: */
  /* K&R Function, args 0, attr 0 */
  int (__cc_version2 atoi)();
  /* In module modem: */
  /* Function, args 1, attr 0 */
  int (__cc_version2 atoi)(char const *);
Warning[w6]: Type conflict for external/entry "send_cmd_wait", in module debug against external/entry in module modem_uart; prototyped function vs K&R function
  /* In module debug: */
  /* K&R Function, args 0, attr 0 */
  int (__cc_version2 send_cmd_wait)();
  /* In module modem_uart: */
  /* Function, args 4, attr 0 */
  char * (__cc_version2 send_cmd_wait)(char *,
                                       char *,
                                       unsigned char,
                                       unsigned char);
Warning[w6]: Type conflict for external/entry "check_for_OTA", in module events against external/entry in module ota; prototyped function vs K&R function
  /* In module events: */
  /* K&R Function, args 0, attr 0 */
  int (__cc_version2 check_for_OTA)();
  /* In module ota: */
  /* Function, args 0, attr 0 */
  void (__cc_version2 check_for_OTA)(void);
Warning[w6]: Type conflict for external/entry "append_data_in_buffer", in module events against external/entry in module packet_format; function return types are different; different basic types
  /* In module events: */
  /* K&R Function, args 0, attr 0 */
  int (__cc_version2 append_data_in_buffer)();
  /* In module packet_format: */
  /* K&R Function, args 0, attr 0 */
  void (__cc_version2 append_data_in_buffer)();
Warning[w6]: Type conflict for external/entry "device_ready_http", in module debug against external/entry in module packet_format; function return types are different; different basic types
  /* In module debug: */
  /* K&R Function, args 0, attr 0 */
  int (__cc_version2 device_ready_http)();
  /* In module packet_format: */
  /* K&R Function, args 0, attr 0 */
  uint8_t (__cc_version2 device_ready_http)();
    typedef unsigned char uint8_t;
Warning[w6]: Type conflict for external/entry "get_local_time", in module device_alarms against external/entry in module packet_format; function return types are different; different basic types
  /* In module device_alarms: */
  /* K&R Function, args 0, attr 0 */
  int (__cc_version2 get_local_time)();
  /* In module packet_format: */
  /* K&R Function, args 0, attr 0 */
  void (__cc_version2 get_local_time)();
Warning[w6]: Type conflict for external/entry "parse_input_value_for_sms", in module modem against external/entry in module packet_format; function return types are different; different basic types
  /* In module modem: */
  /* K&R Function, args 0, attr 0 */
  int (__cc_version2 parse_input_value_for_sms)();
  /* In module packet_format: */
  /* K&R Function, args 0, attr 0 */
  unsigned char (__cc_version2 parse_input_value_for_sms)();
Warning[w6]: Type conflict for external/entry "send_data_to_server", in module device_alarms against external/entry in module packet_format; prototyped function vs K&R function
  /* In module device_alarms: */
  /* K&R Function, args 0, attr 0 */
  int (__cc_version2 send_data_to_server)();
  /* In module packet_format: */
  /* Function, args 1, attr 0 */
  unsigned char (__cc_version2 send_data_to_server)(char *);
Warning[w6]: Type conflict for external/entry "PMM_trigBOR", in module temperature against external/entry in module pmm; prototyped function vs K&R function
  /* In module temperature: */
  /* K&R Function, args 0, attr 0 */
  int (__cc_version2 PMM_trigBOR)();
  /* In module pmm: */
  /* Function, args 0, attr 0 */
  void (__cc_version2 PMM_trigBOR)(void);
Warning[w6]: Type conflict for external/entry "PMM_trigBOR", in module debug against external/entry in module pmm; prototyped function vs K&R function
  /* In module debug: */
  /* K&R Function, args 0, attr 0 */
  int (__cc_version2 PMM_trigBOR)();
  /* In module pmm: */
  /* Function, args 0, attr 0 */
  void (__cc_version2 PMM_trigBOR)(void);
Warning[w6]: Type conflict for external/entry "dev_sms_cofig", in module events against external/entry in module sms; function return types are different; different basic types
  /* In module events: */
  /* K&R Function, args 0, attr 0 */
  int (__cc_version2 dev_sms_cofig)();
  /* In module sms: */
  /* K&R Function, args 0, attr 0 */
  void (__cc_version2 dev_sms_cofig)();
Warning[w6]: Type conflict for external/entry "gprs_config_dev", in module events against external/entry in module sms; function return types are different; different basic types
  /* In module events: */
  /* K&R Function, args 0, attr 0 */
  int (__cc_version2 gprs_config_dev)();
  /* In module sms: */
  /* K&R Function, args 0, attr 0 */
  uint8_t (__cc_version2 gprs_config_dev)();
    typedef unsigned char uint8_t;
Warning[w6]: Type conflict for external/entry "ota_sms", in module debug against external/entry in module sms; prototyped function vs K&R function
  /* In module debug: */
  /* K&R Function, args 0, attr 0 */
  int (__cc_version2 ota_sms)();
  /* In module sms: */
  /* Function, args 1, attr 0 */
  void (__cc_version2 ota_sms)(char *);
Warning[w6]: Type conflict for external/entry "extFlashPowerDown", in module modem against external/entry in module spi_flash; prototyped function vs K&R function
  /* In module modem: */
  /* K&R Function, args 0, attr 0 */
  int (__cc_version2 extFlashPowerDown)();
  /* In module spi_flash: */
  /* Function, args 0, attr 0 */
  void (__cc_version2 extFlashPowerDown)(void);
Warning[w6]: Type conflict for external/entry "state_alarm_reset_all", in module sms against external/entry in module state_machine; function return types are different; different basic types
  /* In module sms: */
  /* K&R Function, args 0, attr 0 */
  int (__cc_version2 state_alarm_reset_all)();
  /* In module state_machine: */
  /* K&R Function, args 0, attr 0 */
  void (__cc_version2 state_alarm_reset_all)();
Warning[w6]: Type conflict for external/entry "state_alarm_reset_all", in module debug against external/entry in module state_machine; function return types are different; different basic types
  /* In module debug: */
  /* K&R Function, args 0, attr 0 */
  int (__cc_version2 state_alarm_reset_all)();
  /* In module state_machine: */
  /* K&R Function, args 0, attr 0 */
  void (__cc_version2 state_alarm_reset_all)();
Warning[w6]: Type conflict for external/entry "state_check_disconn_flags", in module events against external/entry in module state_machine; function return types are different; different basic types
  /* In module events: */
  /* K&R Function, args 0, attr 0 */
  int (__cc_version2 state_check_disconn_flags)();
  /* In module state_machine: */
  /* K&R Function, args 0, attr 0 */
  void (__cc_version2 state_check_disconn_flags)();
Warning[w6]: Type conflict for external/entry "getFloatNumber2Text", in module sms against external/entry in module stringutils; prototyped function vs K&R function
  /* In module sms: */
  /* K&R Function, args 0, attr 0 */
  int (__cc_version2 getFloatNumber2Text)();
  /* In module stringutils: */
  /* Function, args 2, attr 0 */
  char * (__cc_version2 getFloatNumber2Text)(float,
                                             char *);
Warning[w6]: Type conflict for external/entry "itoa_nopadding", in module sms against external/entry in module stringutils; prototyped function vs K&R function
  /* In module sms: */
  /* K&R Function, args 0, attr 0 */
  int (__cc_version2 itoa_nopadding)();
  /* In module stringutils: */
  /* Function, args 1, attr 0 */
  char * (__cc_version2 itoa_nopadding)(uint32_t);
    typedef unsigned long uint32_t;
Warning[w6]: Type conflict for external/entry "itoa_pad", in module sms against external/entry in module stringutils; prototyped function vs K&R function
  /* In module sms: */
  /* K&R Function, args 0, attr 0 */
  int (__cc_version2 itoa_pad)();
  /* In module stringutils: */
  /* Function, args 1, attr 0 */
  char * (__cc_version2 itoa_pad)(uint32_t);
    typedef unsigned long uint32_t;
Warning[w6]: Type conflict for external/entry "TI_MSPBoot_JumpToBoot", in module http against external/entry in module TI_MSPBoot_Mgr_Vectors_FR57xx; prototyped function vs K&R function
  /* In module http: */
  /* K&R Function, args 0, attr 0 */
  int (__cc_version2 TI_MSPBoot_JumpToBoot)();
  /* In module TI_MSPBoot_Mgr_Vectors_FR57xx: */
  /* Function, args 0, attr 0 */
  void (__cc_version2 TI_MSPBoot_JumpToBoot)(void);
Warning[w6]: Type conflict for external/entry "delay", in module battery against external/entry in module timer; prototyped function vs K&R function
  /* In module battery: */
  /* K&R Function, args 0, attr 0 */
  int (__cc_version2 delay)();
  /* In module timer: */
  /* Function, args 1, attr 0 */
  void (__cc_version2 delay)(uint32_t);
    typedef unsigned long uint32_t;
Warning[w6]: Type conflict for external/entry "epoch_seconds", in module rtc against external/entry in module timer; different basic types
  /* In module rtc: */
  uint32_t epoch_seconds;
    typedef unsigned long uint32_t;
  /* In module timer: */
  long epoch_seconds;
Warning[w6]: Type conflict for external/entry "atoi", in module sms against external/entry in module ?atoi; prototyped function vs K&R function
  /* In module sms: */
  /* K&R Function, args 0, attr 0 */
  int (__cc_version2 atoi)();
  /* In module ?atoi: */
  /* Function, args 1, attr 0 */
  int (__cc_version2 atoi)(char const *);
Warning[w6]: Type conflict for external/entry "memset", in module battery against external/entry in module ?memset; prototyped function vs K&R function
  /* In module battery: */
  /* K&R Function, args 0, attr 0 */
  int (__cc_version2 memset)();
  /* In module ?memset: */
  /* Function, args 3, attr 0 */
  void * (__cc_version2 memset)(void *,
                                int,
                                size_t);
    typedef _Sizet size_t;
    typedef unsigned int _Sizet;
################################################################################
#                                                                              #
#      IAR Universal Linker V6.4.6.89                                          #
#                                                                              #
#           Link time     =  01/Aug/2018  17:31:41                             #
#           Target CPU    =  MSP430                                            #
#           List file     =  E:\NLAU_FISM_SDK_july20\tempsensor_v1\IAR\nlau_fi #
#                            sm_1_aug\NLAU_FISM_SDK\tempsensor_v1\IAR\Fism\Lis #
#                            t\coldtrace5.map                                  #
#           Output file 1 =  E:\NLAU_FISM_SDK_july20\tempsensor_v1\IAR\nlau_fi #
#                            sm_1_aug\NLAU_FISM_SDK\tempsensor_v1\IAR\Fism\Exe #
#                            \gprs_config.TXT                                  #
#                            Format: msp430_txt                                #
#           Output file 2 =  E:\NLAU_FISM_SDK_july20\tempsensor_v1\IAR\nlau_fi #
#                            sm_1_aug\NLAU_FISM_SDK\tempsensor_v1\IAR\Fism\Exe #
#                            \coldtrace5.d43                                   #
#                            Format: ubrof10                                   #
#                            UBROF version 10.0.6                              #
#                            Using library modules for C-SPY (-rt)             #
#           Command line  =  E:\NLAU_FISM_SDK_july20\tempsensor_v1\IAR\nlau_fi #
#                            sm_1_aug\NLAU_FISM_SDK\tempsensor_v1\IAR\Fism\Obj #
#                            \adc12_b.r43                                      #
#                            E:\NLAU_FISM_SDK_july20\tempsensor_v1\IAR\nlau_fi #
#                            sm_1_aug\NLAU_FISM_SDK\tempsensor_v1\IAR\Fism\Obj #
#                            \aes256.r43                                       #
#                            E:\NLAU_FISM_SDK_july20\tempsensor_v1\IAR\nlau_fi #
#                            sm_1_aug\NLAU_FISM_SDK\tempsensor_v1\IAR\Fism\Obj #
#                            \alarms.r43                                       #
#                            E:\NLAU_FISM_SDK_july20\tempsensor_v1\IAR\nlau_fi #
#                            sm_1_aug\NLAU_FISM_SDK\tempsensor_v1\IAR\Fism\Obj #
#                            \apn_config.r43                                   #
#                            E:\NLAU_FISM_SDK_july20\tempsensor_v1\IAR\nlau_fi #
#                            sm_1_aug\NLAU_FISM_SDK\tempsensor_v1\IAR\Fism\Obj #
#                            \battery.r43                                      #
#                            E:\NLAU_FISM_SDK_july20\tempsensor_v1\IAR\nlau_fi #
#                            sm_1_aug\NLAU_FISM_SDK\tempsensor_v1\IAR\Fism\Obj #
#                            \buzzer.r43                                       #
#                            E:\NLAU_FISM_SDK_july20\tempsensor_v1\IAR\nlau_fi #
#                            sm_1_aug\NLAU_FISM_SDK\tempsensor_v1\IAR\Fism\Obj #
#                            \comp_e.r43                                       #
#                            E:\NLAU_FISM_SDK_july20\tempsensor_v1\IAR\nlau_fi #
#                            sm_1_aug\NLAU_FISM_SDK\tempsensor_v1\IAR\Fism\Obj #
#                            \config.r43                                       #
#                            E:\NLAU_FISM_SDK_july20\tempsensor_v1\IAR\nlau_fi #
#                            sm_1_aug\NLAU_FISM_SDK\tempsensor_v1\IAR\Fism\Obj #
#                            \config_profiles.r43                              #
#                            E:\NLAU_FISM_SDK_july20\tempsensor_v1\IAR\nlau_fi #
#                            sm_1_aug\NLAU_FISM_SDK\tempsensor_v1\IAR\Fism\Obj #
#                            \crc.r43                                          #
#                            E:\NLAU_FISM_SDK_july20\tempsensor_v1\IAR\nlau_fi #
#                            sm_1_aug\NLAU_FISM_SDK\tempsensor_v1\IAR\Fism\Obj #
#                            \crc32.r43                                        #
#                            E:\NLAU_FISM_SDK_july20\tempsensor_v1\IAR\nlau_fi #
#                            sm_1_aug\NLAU_FISM_SDK\tempsensor_v1\IAR\Fism\Obj #
#                            \cs.r43                                           #
#                            E:\NLAU_FISM_SDK_july20\tempsensor_v1\IAR\nlau_fi #
#                            sm_1_aug\NLAU_FISM_SDK\tempsensor_v1\IAR\Fism\Obj #
#                            \data_transmit.r43                                #
#                            E:\NLAU_FISM_SDK_july20\tempsensor_v1\IAR\nlau_fi #
#                            sm_1_aug\NLAU_FISM_SDK\tempsensor_v1\IAR\Fism\Obj #
#                            \debug.r43                                        #
#                            E:\NLAU_FISM_SDK_july20\tempsensor_v1\IAR\nlau_fi #
#                            sm_1_aug\NLAU_FISM_SDK\tempsensor_v1\IAR\Fism\Obj #
#                            \device_alarms.r43                                #
#                            E:\NLAU_FISM_SDK_july20\tempsensor_v1\IAR\nlau_fi #
#                            sm_1_aug\NLAU_FISM_SDK\tempsensor_v1\IAR\Fism\Obj #
#                            \dma.r43                                          #
#                            E:\NLAU_FISM_SDK_july20\tempsensor_v1\IAR\nlau_fi #
#                            sm_1_aug\NLAU_FISM_SDK\tempsensor_v1\IAR\Fism\Obj #
#                            \encode.r43                                       #
#                            E:\NLAU_FISM_SDK_july20\tempsensor_v1\IAR\nlau_fi #
#                            sm_1_aug\NLAU_FISM_SDK\tempsensor_v1\IAR\Fism\Obj #
#                            \esi.r43                                          #
#                            E:\NLAU_FISM_SDK_july20\tempsensor_v1\IAR\nlau_fi #
#                            sm_1_aug\NLAU_FISM_SDK\tempsensor_v1\IAR\Fism\Obj #
#                            \eusci_a_spi.r43                                  #
#                            E:\NLAU_FISM_SDK_july20\tempsensor_v1\IAR\nlau_fi #
#                            sm_1_aug\NLAU_FISM_SDK\tempsensor_v1\IAR\Fism\Obj #
#                            \eusci_a_uart.r43                                 #
#                            E:\NLAU_FISM_SDK_july20\tempsensor_v1\IAR\nlau_fi #
#                            sm_1_aug\NLAU_FISM_SDK\tempsensor_v1\IAR\Fism\Obj #
#                            \eusci_b_i2c.r43                                  #
#                            E:\NLAU_FISM_SDK_july20\tempsensor_v1\IAR\nlau_fi #
#                            sm_1_aug\NLAU_FISM_SDK\tempsensor_v1\IAR\Fism\Obj #
#                            \eusci_b_spi.r43                                  #
#                            E:\NLAU_FISM_SDK_july20\tempsensor_v1\IAR\nlau_fi #
#                            sm_1_aug\NLAU_FISM_SDK\tempsensor_v1\IAR\Fism\Obj #
#                            \events.r43                                       #
#                            E:\NLAU_FISM_SDK_july20\tempsensor_v1\IAR\nlau_fi #
#                            sm_1_aug\NLAU_FISM_SDK\tempsensor_v1\IAR\Fism\Obj #
#                            \fatdata.r43                                      #
#                            E:\NLAU_FISM_SDK_july20\tempsensor_v1\IAR\nlau_fi #
#                            sm_1_aug\NLAU_FISM_SDK\tempsensor_v1\IAR\Fism\Obj #
#                            \FatFs_Lib.r43                                    #
#                            E:\NLAU_FISM_SDK_july20\tempsensor_v1\IAR\nlau_fi #
#                            sm_1_aug\NLAU_FISM_SDK\tempsensor_v1\IAR\Fism\Obj #
#                            \file_system.r43                                  #
#                            E:\NLAU_FISM_SDK_july20\tempsensor_v1\IAR\nlau_fi #
#                            sm_1_aug\NLAU_FISM_SDK\tempsensor_v1\IAR\Fism\Obj #
#                            \framctl.r43                                      #
#                            E:\NLAU_FISM_SDK_july20\tempsensor_v1\IAR\nlau_fi #
#                            sm_1_aug\NLAU_FISM_SDK\tempsensor_v1\IAR\Fism\Obj #
#                            \fridge_data.r43                                  #
#                            E:\NLAU_FISM_SDK_july20\tempsensor_v1\IAR\nlau_fi #
#                            sm_1_aug\NLAU_FISM_SDK\tempsensor_v1\IAR\Fism\Obj #
#                            \fridge_uart.r43                                  #
#                            E:\NLAU_FISM_SDK_july20\tempsensor_v1\IAR\nlau_fi #
#                            sm_1_aug\NLAU_FISM_SDK\tempsensor_v1\IAR\Fism\Obj #
#                            \globals.r43                                      #
#                            E:\NLAU_FISM_SDK_july20\tempsensor_v1\IAR\nlau_fi #
#                            sm_1_aug\NLAU_FISM_SDK\tempsensor_v1\IAR\Fism\Obj #
#                            \gpio.r43                                         #
#                            E:\NLAU_FISM_SDK_july20\tempsensor_v1\IAR\nlau_fi #
#                            sm_1_aug\NLAU_FISM_SDK\tempsensor_v1\IAR\Fism\Obj #
#                            \hardware_buttons.r43                             #
#                            E:\NLAU_FISM_SDK_july20\tempsensor_v1\IAR\nlau_fi #
#                            sm_1_aug\NLAU_FISM_SDK\tempsensor_v1\IAR\Fism\Obj #
#                            \http.r43                                         #
#                            E:\NLAU_FISM_SDK_july20\tempsensor_v1\IAR\nlau_fi #
#                            sm_1_aug\NLAU_FISM_SDK\tempsensor_v1\IAR\Fism\Obj #
#                            \i2c.r43                                          #
#                            E:\NLAU_FISM_SDK_july20\tempsensor_v1\IAR\nlau_fi #
#                            sm_1_aug\NLAU_FISM_SDK\tempsensor_v1\IAR\Fism\Obj #
#                            \json.r43                                         #
#                            E:\NLAU_FISM_SDK_july20\tempsensor_v1\IAR\nlau_fi #
#                            sm_1_aug\NLAU_FISM_SDK\tempsensor_v1\IAR\Fism\Obj #
#                            \jsonAPIs.r43                                     #
#                            E:\NLAU_FISM_SDK_july20\tempsensor_v1\IAR\nlau_fi #
#                            sm_1_aug\NLAU_FISM_SDK\tempsensor_v1\IAR\Fism\Obj #
#                            \lcd.r43                                          #
#                            E:\NLAU_FISM_SDK_july20\tempsensor_v1\IAR\nlau_fi #
#                            sm_1_aug\NLAU_FISM_SDK\tempsensor_v1\IAR\Fism\Obj #
#                            \lcd_c.r43                                        #
#                            E:\NLAU_FISM_SDK_july20\tempsensor_v1\IAR\nlau_fi #
#                            sm_1_aug\NLAU_FISM_SDK\tempsensor_v1\IAR\Fism\Obj #
#                            \main_system.r43                                  #
#                            E:\NLAU_FISM_SDK_july20\tempsensor_v1\IAR\nlau_fi #
#                            sm_1_aug\NLAU_FISM_SDK\tempsensor_v1\IAR\Fism\Obj #
#                            \minIni.r43                                       #
#                            E:\NLAU_FISM_SDK_july20\tempsensor_v1\IAR\nlau_fi #
#                            sm_1_aug\NLAU_FISM_SDK\tempsensor_v1\IAR\Fism\Obj #
#                            \modem.r43                                        #
#                            E:\NLAU_FISM_SDK_july20\tempsensor_v1\IAR\nlau_fi #
#                            sm_1_aug\NLAU_FISM_SDK\tempsensor_v1\IAR\Fism\Obj #
#                            \modem_uart.r43                                   #
#                            E:\NLAU_FISM_SDK_july20\tempsensor_v1\IAR\nlau_fi #
#                            sm_1_aug\NLAU_FISM_SDK\tempsensor_v1\IAR\Fism\Obj #
#                            \mpu.r43                                          #
#                            E:\NLAU_FISM_SDK_july20\tempsensor_v1\IAR\nlau_fi #
#                            sm_1_aug\NLAU_FISM_SDK\tempsensor_v1\IAR\Fism\Obj #
#                            \mpy32.r43                                        #
#                            E:\NLAU_FISM_SDK_july20\tempsensor_v1\IAR\nlau_fi #
#                            sm_1_aug\NLAU_FISM_SDK\tempsensor_v1\IAR\Fism\Obj #
#                            \ota.r43                                          #
#                            E:\NLAU_FISM_SDK_july20\tempsensor_v1\IAR\nlau_fi #
#                            sm_1_aug\NLAU_FISM_SDK\tempsensor_v1\IAR\Fism\Obj #
#                            \packet_format.r43                                #
#                            E:\NLAU_FISM_SDK_july20\tempsensor_v1\IAR\nlau_fi #
#                            sm_1_aug\NLAU_FISM_SDK\tempsensor_v1\IAR\Fism\Obj #
#                            \pmm.r43                                          #
#                            E:\NLAU_FISM_SDK_july20\tempsensor_v1\IAR\nlau_fi #
#                            sm_1_aug\NLAU_FISM_SDK\tempsensor_v1\IAR\Fism\Obj #
#                            \ram.r43                                          #
#                            E:\NLAU_FISM_SDK_july20\tempsensor_v1\IAR\nlau_fi #
#                            sm_1_aug\NLAU_FISM_SDK\tempsensor_v1\IAR\Fism\Obj #
#                            \ref_a.r43                                        #
#                            E:\NLAU_FISM_SDK_july20\tempsensor_v1\IAR\nlau_fi #
#                            sm_1_aug\NLAU_FISM_SDK\tempsensor_v1\IAR\Fism\Obj #
#                            \rtc.r43                                          #
#                            E:\NLAU_FISM_SDK_july20\tempsensor_v1\IAR\nlau_fi #
#                            sm_1_aug\NLAU_FISM_SDK\tempsensor_v1\IAR\Fism\Obj #
#                            \rtc_b.r43                                        #
#                            E:\NLAU_FISM_SDK_july20\tempsensor_v1\IAR\nlau_fi #
#                            sm_1_aug\NLAU_FISM_SDK\tempsensor_v1\IAR\Fism\Obj #
#                            \rtc_c.r43                                        #
#                            E:\NLAU_FISM_SDK_july20\tempsensor_v1\IAR\nlau_fi #
#                            sm_1_aug\NLAU_FISM_SDK\tempsensor_v1\IAR\Fism\Obj #
#                            \sfr.r43                                          #
#                            E:\NLAU_FISM_SDK_july20\tempsensor_v1\IAR\nlau_fi #
#                            sm_1_aug\NLAU_FISM_SDK\tempsensor_v1\IAR\Fism\Obj #
#                            \sms.r43                                          #
#                            E:\NLAU_FISM_SDK_july20\tempsensor_v1\IAR\nlau_fi #
#                            sm_1_aug\NLAU_FISM_SDK\tempsensor_v1\IAR\Fism\Obj #
#                            \spi_flash.r43                                    #
#                            E:\NLAU_FISM_SDK_july20\tempsensor_v1\IAR\nlau_fi #
#                            sm_1_aug\NLAU_FISM_SDK\tempsensor_v1\IAR\Fism\Obj #
#                            \state_machine.r43                                #
#                            E:\NLAU_FISM_SDK_july20\tempsensor_v1\IAR\nlau_fi #
#                            sm_1_aug\NLAU_FISM_SDK\tempsensor_v1\IAR\Fism\Obj #
#                            \stringutils.r43                                  #
#                            E:\NLAU_FISM_SDK_july20\tempsensor_v1\IAR\nlau_fi #
#                            sm_1_aug\NLAU_FISM_SDK\tempsensor_v1\IAR\Fism\Obj #
#                            \sysctl.r43                                       #
#                            E:\NLAU_FISM_SDK_july20\tempsensor_v1\IAR\nlau_fi #
#                            sm_1_aug\NLAU_FISM_SDK\tempsensor_v1\IAR\Fism\Obj #
#                            \temperature.r43                                  #
#                            E:\NLAU_FISM_SDK_july20\tempsensor_v1\IAR\nlau_fi #
#                            sm_1_aug\NLAU_FISM_SDK\tempsensor_v1\IAR\Fism\Obj #
#                            \test.r43                                         #
#                            E:\NLAU_FISM_SDK_july20\tempsensor_v1\IAR\nlau_fi #
#                            sm_1_aug\NLAU_FISM_SDK\tempsensor_v1\IAR\Fism\Obj #
#                            \thermalcanyon.r43                                #
#                            E:\NLAU_FISM_SDK_july20\tempsensor_v1\IAR\nlau_fi #
#                            sm_1_aug\NLAU_FISM_SDK\tempsensor_v1\IAR\Fism\Obj #
#                            \TI_MSPBoot_Mgr_Vectors_FR57xx.r43                #
#                            E:\NLAU_FISM_SDK_july20\tempsensor_v1\IAR\nlau_fi #
#                            sm_1_aug\NLAU_FISM_SDK\tempsensor_v1\IAR\Fism\Obj #
#                            \TI_MSPBoot_VecRed_FR5969.r43                     #
#                            E:\NLAU_FISM_SDK_july20\tempsensor_v1\IAR\nlau_fi #
#                            sm_1_aug\NLAU_FISM_SDK\tempsensor_v1\IAR\Fism\Obj #
#                            \timer.r43                                        #
#                            E:\NLAU_FISM_SDK_july20\tempsensor_v1\IAR\nlau_fi #
#                            sm_1_aug\NLAU_FISM_SDK\tempsensor_v1\IAR\Fism\Obj #
#                            \timer_a.r43                                      #
#                            E:\NLAU_FISM_SDK_july20\tempsensor_v1\IAR\nlau_fi #
#                            sm_1_aug\NLAU_FISM_SDK\tempsensor_v1\IAR\Fism\Obj #
#                            \timer_b.r43                                      #
#                            E:\NLAU_FISM_SDK_july20\tempsensor_v1\IAR\nlau_fi #
#                            sm_1_aug\NLAU_FISM_SDK\tempsensor_v1\IAR\Fism\Obj #
#                            \tlv.r43                                          #
#                            E:\NLAU_FISM_SDK_july20\tempsensor_v1\IAR\nlau_fi #
#                            sm_1_aug\NLAU_FISM_SDK\tempsensor_v1\IAR\Fism\Obj #
#                            \watchdog.r43                                     #
#                            E:\NLAU_FISM_SDK_july20\tempsensor_v1\IAR\nlau_fi #
#                            sm_1_aug\NLAU_FISM_SDK\tempsensor_v1\IAR\Fism\Obj #
#                            \wdt_a.r43                                        #
#                            -o                                                #
#                            E:\NLAU_FISM_SDK_july20\tempsensor_v1\IAR\nlau_fi #
#                            sm_1_aug\NLAU_FISM_SDK\tempsensor_v1\IAR\Fism\Exe #
#                            \coldtrace5.d43                                   #
#                            -l                                                #
#                            E:\NLAU_FISM_SDK_july20\tempsensor_v1\IAR\nlau_fi #
#                            sm_1_aug\NLAU_FISM_SDK\tempsensor_v1\IAR\Fism\Lis #
#                            t\coldtrace5.map                                  #
#                            -xmsn                                             #
#                            "-IC:\Program Files (x86)\IAR Systems\Embedded Wo #
#                            rkbench 7.4\430\LIB\"                             #
#                            -f                                                #
#                            E:\NLAU_FISM_SDK_july20\tempsensor_v1\IAR\nlau_fi #
#                            sm_1_aug\NLAU_FISM_SDK\tempsensor_v1\IAR\lnk430fr #
#                            5994_app.xcl                                      #
#                            (-D_FRAM_INFO_START=1800 -D_FRAM_INFO_END=19FF    #
#                            -D_FRAM_INFOD_START=1800 -D_FRAM_INFOD_END=187F   #
#                            -D_FRAM_INFOC_START=1880 -D_FRAM_INFOC_END=18FF   #
#                            -D_FRAM_INFOB_START=1900 -D_FRAM_INFOB_END=197F   #
#                            -D_FRAM_INFOA_START=1980 -D_FRAM_INFOA_END=19FF   #
#                            -D_FRAM_MAIN_START=4000 -D_FRAM_MAIN_END=FFFF     #
#                            -D_FRAM_SIG_START=FF80 -D_FRAM_SIG_END=FF8F       #
#                            -D_FRAM_JTAGSIG_START=FF80                        #
#                            -D_FRAM_JTAGSIG_END=FF83                          #
#                            -D_FRAM_BSLSIG_START=FF84                         #
#                            -D_FRAM_BSLSIG_END=FF87                           #
#                            -D_FRAM_IPESIG_START=FF88                         #
#                            -D_FRAM_IPESIG_END=FF8E                           #
#                            -D_FRAM_VECTORS_START=FF90                        #
#                            -D_FRAM_RESET_VECTOR=FFFE                         #
#                            -D_FRAM_HIGH_START=10000 -D_FRAM_HIGH_END=42FFF   #
#                            -D_RAM_START=1C00 -D_RAM_END=2BFF                 #
#                            -D_BOOT_Start=C400 -D_BOOT_End=FF7F               #
#                            -D_DELAY_VECTOR=FF18 -D_DELAY_VECTOR_END=FF1B     #
#                            -D_I2C_VECTOR=FF48 -D_I2C_VECTOR_END=FF4F         #
#                            -D_BOOT_Info_Start=1800 -D_BOOT_Info_End=19FF     #
#                            -D_App_Info_Start=19FF -D_App_Info_End=19FF       #
#                            -D_UserSpace_Start=4000 -D_UserSpace_End=53FF     #
#                            -D_AppChecksum=5400                               #
#                            -D_AppUpdate_Password_Addr=5402                   #
#                            -D_AppUpdate_Status_Addr=5404                     #
#                            -D_App_Main_Start=5405 -D_App_Main_End=C3FF       #
#                            -D_App_Reset_Vector=C3FE                          #
#                            -D_App_Proxy_Vector_Start=C36A                    #
#                            -D_App_Proxy_Vector_End=C3FD                      #
#                            -D_App_High_Start=10000                           #
#                            -D_App_High_Const_Start=10040                     #
#                            -D_App_High_End=42FFF -D_CRC_Main_Size=6FFB       #
#                            -D_CRC_High_Size=34000 -D_BOOT_RAM_START=1C00     #
#                            -D_BOOT_RAM_END=2131 -D_SHARED_RAM_START=2132     #
#                            -D_SHARED_RAM_END=2BFF -cmsp430                   #
#                            -QCODE_I=CODE_ID -QTLS16_I=TLS16_ID               #
#                            -D__iar_HWMUL=4C0 -Z(DATA)TINYRAM=000A-001F       #
#                            -Z(DATA)LEARAM=2C00-3AC7                          #
#                            -Z(DATA)LEASTACK=3AC8-3BFF                        #
#                            -Z(DATA)DATA16_I,DATA16_Z,DATA16_N,TLS16_I=2132-2 #
#                            BFF                                               #
#                            -Z(DATA)DATA16_HEAP+_DATA16_HEAP_SIZE             #
#                            -Z(DATA)DATA20_HEAP+_DATA20_HEAP_SIZE             #
#                            -Z(DATA)CODE_I                                    #
#                            -Z(DATA)DATA20_I,DATA20_Z,DATA20_N                #
#                            -Z(CONST)CHECKSUM=5400                            #
#                            -Z(CONST)DATA16_P,DATA20_P=5405-C3FF              #
#                            -Z(CONST)MPU_B1 -Z(CONST)IPE_B1=5405-C3FF         #
#                            -Z(DATA)IPEDATA16_N -Z(CODE)IPECODE16             #
#                            -Z(CONST)IPEDATA16_C,IPE_B2 -Z(CONST)MPU_B2       #
#                            -Z(CONST)DATA16_C,DATA16_ID,TLS16_ID,DIFUNCT=5405 #
#                            -C3FF                                             #
#                            -Z(CODE)CSTART,ISR_CODE,CODE16=5405-C3FF          #
#                            -Z(CODE)APP_PROXY_VECTORS#C3FD                    #
#                            -Z(CODE)INTVEC=C36A-C3FD                          #
#                            -Z(CODE)RESET=C3FE-C3FF                           #
#                            -P(CODE)CALIBRATION,STATE_MACHINE=4000-53FF       #
#                            -P(CODE)AGGREGATE,XBIGDATA,CONFIGURATION=4000-53F #
#                            F                                                 #
#                            -Z(DATA)CSTACK+_STACK_SIZE#                       #
#                            -P(CODE)LOW_MEM=5405-C3FF                         #
#                            -P(CODE)CODE=5405-C3FF,10000-42FFF                #
#                            -Z(CODE)CODE_PAD -P(CODE)HIGH_MEM=10000-42FFF     #
#                            -Z(CONST)DATA20_C,DATA20_ID,CODE_ID=5405-C3FF,100 #
#                            40-42FFF                                          #
#                            -Z(CONST)SIGNATURE=FF80-FF8F                      #
#                            -Z(CONST)JTAGSIGNATURE=FF80-FF83                  #
#                            -Z(CONST)BSLSIGNATURE=FF84-FF87                   #
#                            -Z(CONST)IPESIGNATURE=FF88-FF8E) -f               #
#                            "C:\Program Files (x86)\IAR Systems\Embedded Work #
#                            bench 7.4\430\config\linker\multiplier32.xcl"     #
#                            (-e?Mul8Hw=?Mul8 -e?Mul16Hw=?Mul16                #
#                            -e?Mul16to32uHw=?Mul16to32u                       #
#                            -e?Mul16to32sHw=?Mul16to32s -e?Mul32Hw32=?Mul32   #
#                            -e?Mul64Hw32=_Mul64i                              #
#                            -e?Mul32u32uto64iHw32=_Mul32u32uto64i             #
#                            -e?Mul32fHw32=_Mul32f                             #
#                            -e_Mul64fHw32Ptr=_Mul64fPtr) -D_STACK_SIZE=A0     #
#                            -rt                                               #
#                            "C:\Program Files (x86)\IAR Systems\Embedded Work #
#                            bench 7.4\430\lib\dlib\dl430xlmff.r43"            #
#                            -f                                                #
#                            "C:\Program Files (x86)\IAR Systems\Embedded Work #
#                            bench 7.4\430\config\linker\dlib_small_math.xcl"  #
#                            (-e__iar_cos_small=cos -e__iar_cos_smallf=cosf    #
#                            -e__iar_cos_smalll=cosl -e__iar_exp_small=exp     #
#                            -e__iar_exp_smallf=expf -e__iar_exp_smalll=expl   #
#                            -e__iar_log10_small=log10                         #
#                            -e__iar_log10_smallf=log10f                       #
#                            -e__iar_log10_smalll=log10l                       #
#                            -e__iar_log_small=log -e__iar_log_smallf=logf     #
#                            -e__iar_log_smalll=logl -e__iar_log2_small=log2   #
#                            -e__iar_log2_smallf=log2f                         #
#                            -e__iar_log2_smalll=log2l -e__iar_pow_small=pow   #
#                            -e__iar_pow_smallf=powf -e__iar_pow_smalll=powl   #
#                            -e__iar_sin_small=sin -e__iar_sin_smallf=sinf     #
#                            -e__iar_sin_smalll=sinl -e__iar_tan_small=tan     #
#                            -e__iar_tan_smallf=tanf -e__iar_tan_smalll=tanl   #
#                            -e__iar_Sin_small=__iar_Sin                       #
#                            -e__iar_Log_small=__iar_Log)                      #
#                            -e_PrintfFull=_Printf -e_ScanfSmallNoMb=_Scanf    #
#                            -D_DATA16_HEAP_SIZE=A0                            #
#                            -Omsp430_txt=E:\NLAU_FISM_SDK_july20\tempsensor_v #
#                            1\IAR\nlau_fism_1_aug\NLAU_FISM_SDK\tempsensor_v1 #
#                            \IAR\Fism\Exe\gprs_config.TXT                     #
#                            -s __program_start -D_DATA20_HEAP_SIZE=50         #
#                                                                              #
#                           Copyright (C) 1987-2016 IAR Systems AB.            #
################################################################################





                ****************************************
                *                                      *
                *           CROSS REFERENCE            *
                *                                      *
                ****************************************

       Program entry at :           6AAA  Relocatable, from module : ?cstart




                ****************************************
                *                                      *
                *            RUNTIME MODEL             *
                *                                      *
                ****************************************

  __Heap_Handler             = Basic
  __SystemLibrary            = DLib
  __code_model               = large
  __core                     = 430X
  __data_model               = medium
  __dlib_file_descriptor     = 1
  __dlib_full_locale_support = 1
  __double_size              = 32
  __pic                      = no
  __reg_r4                   = free
  __reg_r5                   = free
  __rt_version               = 3

                ****************************************
                *                                      *
                *    AUTOMATIC SYMBOL REDIRECTIONS     *
                *                                      *
                ****************************************

                  There are no automatic symbol redirections.



                ****************************************
                *                                      *
                *              MODULE MAP              *
                *                                      *
                ****************************************


  DEFINED ABSOLUTE ENTRIES
    *************************************************************************

  DEFINED ABSOLUTE ENTRIES
  PROGRAM MODULE, NAME : ?ABS_ENTRY_MOD

Absolute parts
           ENTRY                   ADDRESS         REF BY
           =====                   =======         ======
           _DATA20_HEAP_SIZE       0050 
           _DATA16_HEAP_SIZE       00A0 
           _STACK_SIZE             00A0 
           __iar_HWMUL             04C0            ?Mul16to32sHw (?Mul16to32sHw)
                                                   ?Mul32Hw32 (?Mul32Hw32)
                                                   ?Mul32fHw32 (?Mul32fHw32)
                                                   Segment part 1 (?Mul8Hw)
                                                   itoa (spi_flash)
           _SHARED_RAM_END         2BFF 
           _SHARED_RAM_START       2132 
           _BOOT_RAM_END           2131 
           _BOOT_RAM_START         1C00 
           _CRC_High_Size          00034000 
           _CRC_Main_Size          6FFB 
           _App_High_End           00042FFF 
           _App_High_Const_Start   00010040 
           _App_High_Start         00010000 
           _App_Proxy_Vector_End   C3FD 
           _App_Proxy_Vector_Start
                                   C36A 
           _App_Reset_Vector       C3FE            ProxyVectorTable (TI_MSPBoot_VecRed_FR5969)
           _App_Main_End           C3FF 
           _App_Main_Start         5405 
           _AppUpdate_Status_Addr
                                   5404 
           _AppUpdate_Password_Addr
                                   5402 
           _AppChecksum            5400 
           _UserSpace_End          53FF 
           _UserSpace_Start        4000 
           _App_Info_End           19FF 
           _App_Info_Start         19FF 
           _BOOT_Info_End          19FF 
           _BOOT_Info_Start        1800 
           _I2C_VECTOR_END         FF4F 
           _I2C_VECTOR             FF48            i2c_read (i2c)
           _DELAY_VECTOR_END       FF1B 
           _DELAY_VECTOR           FF18            delay (timer)
           _BOOT_End               FF7F 
           _BOOT_Start             C400 
           _RAM_END                2BFF 
           _RAM_START              1C00 
           _FRAM_HIGH_END          00042FFF 
           _FRAM_HIGH_START        00010000 
           _FRAM_RESET_VECTOR      FFFE 
           _FRAM_VECTORS_START     FF90 
           _FRAM_IPESIG_END        FF8E 
           _FRAM_IPESIG_START      FF88 
           _FRAM_BSLSIG_END        FF87 
           _FRAM_BSLSIG_START      FF84 
           _FRAM_JTAGSIG_END       FF83 
           _FRAM_JTAGSIG_START     FF80 
           _FRAM_SIG_END           FF8F 
           _FRAM_SIG_START         FF80 
           _FRAM_MAIN_END          FFFF 
           _FRAM_MAIN_START        4000 
           _FRAM_INFOA_END         19FF 
           _FRAM_INFOA_START       1980 
           _FRAM_INFOB_END         197F 
           _FRAM_INFOB_START       1900 
           _FRAM_INFOC_END         18FF 
           _FRAM_INFOC_START       1880 
           _FRAM_INFOD_END         187F 
           _FRAM_INFOD_START       1800 
           _FRAM_INFO_END          19FF 
           _FRAM_INFO_START        1800 
    *************************************************************************

  FILE NAME : E:\NLAU_FISM_SDK_july20\tempsensor_v1\IAR\nlau_fism_1_aug\NLAU_FISM_SDK\tempsensor_v1\IAR\Fism\Obj\adc12_b.r43
    *************************************************************************

  FILE NAME : E:\NLAU_FISM_SDK_july20\tempsensor_v1\IAR\nlau_fism_1_aug\NLAU_FISM_SDK\tempsensor_v1\IAR\Fism\Obj\aes256.r43
    *************************************************************************

  FILE NAME : E:\NLAU_FISM_SDK_july20\tempsensor_v1\IAR\nlau_fism_1_aug\NLAU_FISM_SDK\tempsensor_v1\IAR\Fism\Obj\alarms.r43
  PROGRAM MODULE, NAME : alarms

  SEGMENTS IN THE MODULE
  ======================
<CODE,LOW_MEM> 1 (was CODE)
  Relative segment, address: A280 - A403 (0x184 bytes), align: 1
  Segment part 13.            Intra module refs:   alarm_test_sensor
           ENTRY                   ADDRESS         REF BY
           =====                   =======         ======
           alarm_sms               A280            ?Subroutine27 (modem)
                                                   check_for_OTA (ota)
                                                   state_battery_level (state_machine)
               calls direct
    -------------------------------------------------------------------------
<CODE> 1 (was CODE)
  Relative segment, address: 00012ED0 - 00012ED9 (0xa bytes), align: 1
  Segment part 14.
           ENTRY                   ADDRESS         REF BY
           =====                   =======         ======
           getAlarmsSensor         00012ED0        i2c_temperature (temperature)
                                                   state_check_disconn_flags (state_machine)
                                                   temperature_subsampling_calculate (temperature)
    -------------------------------------------------------------------------
<CODE,LOW_MEM> 1 (was CODE)
  Relative segment, address: A0FA - A27F (0x186 bytes), align: 1
  Segment part 15.            Intra module refs:   alarm_monitor
           ENTRY                   ADDRESS         REF BY
           =====                   =======         ======
           alarm_test_sensor       A0FA 
               calls direct
    -------------------------------------------------------------------------
<CODE> 1 (was CODE)
  Relative segment, address: 0001262E - 00012645 (0x18 bytes), align: 1
  Segment part 16.
           ENTRY                   ADDRESS         REF BY
           =====                   =======         ======
           alarm_monitor           0001262E        events_health_check (events)
               calls direct
    -------------------------------------------------------------------------
DATA16_C
  Relative segment, address: 544E - 5455 (0x8 bytes), align: 0
  Segment part 2.             Intra module refs:   alarm_sms
    -------------------------------------------------------------------------
DATA16_C
  Relative segment, address: 5456 - 545C (0x7 bytes), align: 0
  Segment part 3.             Intra module refs:   alarm_sms
    -------------------------------------------------------------------------
DATA16_C
  Relative segment, address: 545D - 5464 (0x8 bytes), align: 0
  Segment part 4.             Intra module refs:   alarm_sms
    -------------------------------------------------------------------------
DATA16_C
  Relative segment, address: 5465 - 547D (0x19 bytes), align: 0
  Segment part 5.             Intra module refs:   alarm_sms
    -------------------------------------------------------------------------
DATA16_C
  Relative segment, address: 547E - 54B3 (0x36 bytes), align: 0
  Segment part 6.             Intra module refs:   alarm_sms
    -------------------------------------------------------------------------
DATA16_C
  Relative segment, address: 54B4 - 54E8 (0x35 bytes), align: 0
  Segment part 7.             Intra module refs:   alarm_sms
    -------------------------------------------------------------------------
DATA16_C
  Relative segment, address: 54E9 - 54F8 (0x10 bytes), align: 0
  Segment part 8.             Intra module refs:   alarm_sms
    -------------------------------------------------------------------------
DATA16_C
  Relative segment, address: 54F9 - 5510 (0x18 bytes), align: 0
  Segment part 9.             Intra module refs:   alarm_sms
    -------------------------------------------------------------------------
DATA16_C
  Relative segment, address: 5511 - 551F (0xf bytes), align: 0
  Segment part 10.            Intra module refs:   alarm_sms

    *************************************************************************

  FILE NAME : E:\NLAU_FISM_SDK_july20\tempsensor_v1\IAR\nlau_fism_1_aug\NLAU_FISM_SDK\tempsensor_v1\IAR\Fism\Obj\apn_config.r43
  PROGRAM MODULE, NAME : apn_config

  SEGMENTS IN THE MODULE
  ======================
<CODE,LOW_MEM> 1 (was CODE)
  Relative segment, address: AEC4 - B003 (0x140 bytes), align: 1
  Segment part 85.
           ENTRY                   ADDRESS         REF BY
           =====                   =======         ======
           read_apn                AEC4            parse_base_station_info (modem)
               calls direct
    -------------------------------------------------------------------------
<CODE> 1 (was CODE)
  Relative segment, address: 00012D26 - 00012D31 (0xc bytes), align: 1
  Segment part 86.            Intra module refs:   read_apn
           LOCAL                   ADDRESS         
           =====                   =======         
           ?Subroutine2            00012D26 
    -------------------------------------------------------------------------
DATA16_C
  Relative segment, address: 5520 - 5524 (0x5 bytes), align: 0
  Segment part 28.            Intra module refs:   read_apn
    -------------------------------------------------------------------------
DATA16_C
  Relative segment, address: 5525 - 5550 (0x2c bytes), align: 0
  Segment part 29.            Intra module refs:   read_apn

    *************************************************************************

  FILE NAME : E:\NLAU_FISM_SDK_july20\tempsensor_v1\IAR\nlau_fism_1_aug\NLAU_FISM_SDK\tempsensor_v1\IAR\Fism\Obj\battery.r43
  PROGRAM MODULE, NAME : battery

  SEGMENTS IN THE MODULE
  ======================
DATA16_AN
  Relative segment, address: 0812 - 0813 (0x2 bytes), align: 0
  Segment part 1. ROOT        Intra module refs:   ADC12_ISR (temperature)
                                                   temperature_analog_to_digital_conversion (temperature)
           ENTRY                   ADDRESS         REF BY
           =====                   =======         ======
           _A_ADC12IER0_L          0812 
           LOCAL                   ADDRESS         
           =====                   =======         
           ADC12IER0               0812 
           ADC12IER0_H             0813 
           ADC12IER0_L             0812 
    -------------------------------------------------------------------------
DATA16_AN
  Relative segment, address: 0202 - 0203 (0x2 bytes), align: 0
  Segment part 2. ROOT        Intra module refs:   check_batt_state
                                                   gsm_init (modem)
                                                   led_blink (rtc)
                                                   uart_setupIO (modem_uart)
           ENTRY                   ADDRESS         REF BY
           =====                   =======         ======
           _A_PAOUT_L              0202 
           LOCAL                   ADDRESS         
           =====                   =======         
           PAOUT                   0202 
           PAOUT_H                 0203 
           PAOUT_L                 0202 
    -------------------------------------------------------------------------
DATA16_AN
  Relative segment, address: 0222 - 0223 (0x2 bytes), align: 0
  Segment part 3. ROOT        Intra module refs:   check_batt_state
                                                   gsm_exit_sleep (modem)
                                                   gsm_init (modem)
                                                   led_blink (rtc)
                                                   modem_turn_off (main_system)
                                                   modem_turn_on (main_system)
                                                   setup_IO (main_system)
           ENTRY                   ADDRESS         REF BY
           =====                   =======         ======
           _A_PBOUT_L              0222 
           LOCAL                   ADDRESS         
           =====                   =======         
           PBOUT                   0222 
           PBOUT_H                 0223 
           PBOUT_L                 0222 
    -------------------------------------------------------------------------
DATA16_AN
  Relative segment, address: 0260 - 0261 (0x2 bytes), align: 0
  Segment part 4. ROOT        Intra module refs:   led_blink (rtc)
           ENTRY                   ADDRESS         REF BY
           =====                   =======         ======
           _A_PDIN_L               0260 
           LOCAL                   ADDRESS         
           =====                   =======         
           PDIN                    0260 
           PDIN_H                  0261 
           PDIN_L                  0260 
    -------------------------------------------------------------------------
DATA16_AN
  Relative segment, address: 015C - 015D (0x2 bytes), align: 0
  Segment part 5. ROOT        Intra module refs:   check_batt_state
                                                   main (main_system)
                                                   ota_process (ota)
                                                   watchdog_disable (watchdog)
           ENTRY                   ADDRESS         REF BY
           =====                   =======         ======
           _A_WDTCTL_L             015C 
           LOCAL                   ADDRESS         
           =====                   =======         
           WDTCTL                  015C 
           WDTCTL_H                015D 
           WDTCTL_L                015C 
    -------------------------------------------------------------------------
<CODE> 1 (was CODE)
  Relative segment, address: 00010E2C - 00010EA3 (0x78 bytes), align: 1
  Segment part 18.            Intra module refs:   check_batt_state
           ENTRY                   ADDRESS         REF BY
           =====                   =======         ======
           batt_getlevel           00010E2C        append_data_in_buffer (packet_format)
                                                   check_battery_alarm (device_alarms)
                                                   check_for_OTA (ota)
                                                   events_health_check (events)
                                                   parse_diag_command (debug)
               calls direct
    -------------------------------------------------------------------------
<CODE> 1 (was CODE)
  Relative segment, address: 00012F9A - 00012FA1 (0x8 bytes), align: 1
  Segment part 19.            Intra module refs:   batt_current
                                                   batt_getlevel
                                                   batt_voltage
           LOCAL                   ADDRESS         
           =====                   =======         
           ?Subroutine0            00012F9A 
    -------------------------------------------------------------------------
<CODE> 1 (was CODE)
  Relative segment, address: 00011550 - 000115A5 (0x56 bytes), align: 1
  Segment part 20.
           ENTRY                   ADDRESS         REF BY
           =====                   =======         ======
           check_batt_state        00011550        events_health_check (events)
               calls direct
    -------------------------------------------------------------------------
<CODE> 1 (was CODE)
  Relative segment, address: 00012060 - 00012089 (0x2a bytes), align: 1
  Segment part 23.
           ENTRY                   ADDRESS         REF BY
           =====                   =======         ======
           batt_voltage            00012060        check_battery_alarm (device_alarms)
               calls direct
    -------------------------------------------------------------------------
<CODE> 1 (was CODE)
  Relative segment, address: 000118B0 - 000118F3 (0x44 bytes), align: 1
  Segment part 17.            Intra module refs:   batt_getlevel
                                                   check_batt_state
           ENTRY                   ADDRESS         REF BY
           =====                   =======         ======
           batt_current            000118B0        check_battery_alarm (device_alarms)
               calls direct
    -------------------------------------------------------------------------
DATA16_C
  Relative segment, address: 5551 - 5557 (0x7 bytes), align: 0
  Segment part 7.             Intra module refs:   batt_getlevel
    -------------------------------------------------------------------------
DATA16_C
  Relative segment, address: 5558 - 555A (0x3 bytes), align: 0
  Segment part 8.             Intra module refs:   batt_getlevel
    -------------------------------------------------------------------------
DATA16_C
  Relative segment, address: 555B - 5570 (0x16 bytes), align: 0
  Segment part 9.             Intra module refs:   check_batt_state
    -------------------------------------------------------------------------
DATA16_C
  Relative segment, address: 5571 - 5586 (0x16 bytes), align: 0
  Segment part 10.            Intra module refs:   check_batt_state
    -------------------------------------------------------------------------
DATA16_C
  Relative segment, address: 5587 - 559C (0x16 bytes), align: 0
  Segment part 15.            Intra module refs:   batt_current
    -------------------------------------------------------------------------
DATA16_C
  Relative segment, address: 559D - 55AE (0x12 bytes), align: 0
  Segment part 16.            Intra module refs:   batt_current

    *************************************************************************

  FILE NAME : E:\NLAU_FISM_SDK_july20\tempsensor_v1\IAR\nlau_fism_1_aug\NLAU_FISM_SDK\tempsensor_v1\IAR\Fism\Obj\buzzer.r43
  PROGRAM MODULE, NAME : buzzer

  SEGMENTS IN THE MODULE
  ======================
DATA16_AN
  Relative segment, address: 0400 - 0401 (0x2 bytes), align: 0
  Segment part 2. ROOT 
           ENTRY                   ADDRESS         REF BY
           =====                   =======         ======
           _A_TA2CTL_L             0400 
           LOCAL                   ADDRESS         
           =====                   =======         
           TA2CTL                  0400 
           TA2CTL_H                0401 
           TA2CTL_L                0400 
    -------------------------------------------------------------------------
DATA16_AN
  Relative segment, address: 0402 - 0403 (0x2 bytes), align: 0
  Segment part 3. ROOT 
           ENTRY                   ADDRESS         REF BY
           =====                   =======         ======
           _A_TA2CCTL0_L           0402 
           LOCAL                   ADDRESS         
           =====                   =======         
           TA2CCTL0                0402 
           TA2CCTL0_H              0403 
           TA2CCTL0_L              0402 
    -------------------------------------------------------------------------
DATA16_AN
  Relative segment, address: 0412 - 0413 (0x2 bytes), align: 0
  Segment part 4. ROOT 
           ENTRY                   ADDRESS         REF BY
           =====                   =======         ======
           _A_TA2CCR0_L            0412 
           LOCAL                   ADDRESS         
           =====                   =======         
           TA2CCR0                 0412 
           TA2CCR0_H               0413 
           TA2CCR0_L               0412 

    *************************************************************************

  FILE NAME : E:\NLAU_FISM_SDK_july20\tempsensor_v1\IAR\nlau_fism_1_aug\NLAU_FISM_SDK\tempsensor_v1\IAR\Fism\Obj\comp_e.r43
    *************************************************************************

  FILE NAME : E:\NLAU_FISM_SDK_july20\tempsensor_v1\IAR\nlau_fism_1_aug\NLAU_FISM_SDK\tempsensor_v1\IAR\Fism\Obj\config.r43
  PROGRAM MODULE, NAME : config

  SEGMENTS IN THE MODULE
  ======================
DATA16_I
  Relative segment, address: 2174 - 2174 (0x1 bytes), align: 0
  Segment part 47.
           ENTRY                   ADDRESS         REF BY
           =====                   =======         ======
           g_iSystemSetup          2174            system_boot (main_system)
    -------------------------------------------------------------------------
DATA16_Z
  Relative segment, address: 22DC - 22DC (0x1 bytes), align: 0
  Segment part 49.            Intra module refs:   process_sId
                                                   setvalue
           ENTRY                   ADDRESS         REF BY
           =====                   =======         ======
           sensorId                22DC 
    -------------------------------------------------------------------------
CONFIGURATION
  Relative segment, address: 40D8 - 4379 (0x2a2 bytes), align: 1
  Segment part 50.            Intra module refs:   ?Subroutine17
                                                   Segment part 53
                                                   config_parse_configuration_sms
                                                   setvalue
           ENTRY                   ADDRESS         REF BY
           =====                   =======         ======
           g_ConfigDevice          40D8            event_upload_samples (events)
                                                   temp_sampled_data (modem)
                                                   upload_packet_sms (modem)
    -------------------------------------------------------------------------
CONFIGURATION
  Relative segment, address: 437A - 437F (0x6 bytes), align: 1
  Segment part 51.            Intra module refs:   Segment part 55
           ENTRY                   ADDRESS         REF BY
           =====                   =======         ======
           g_ConfigSystem          437A 
    -------------------------------------------------------------------------
DATA16_I
  Relative segment, address: 2132 - 2133 (0x2 bytes), align: 1
  Segment part 52.            Intra module refs:   cfgGetAppMode
                                                   config_default_configuration
                                                   config_parse_configuration_sms
                                                   default_param_reset
                                                   set_sen
                                                   setvalue
           ENTRY                   ADDRESS         REF BY
           =====                   =======         ======
           g_pDevCfg               2132            alarm_sms (alarms)
                                                   alarm_test_sensor (alarms)
                                                   events_init (events)
                                                   get_sim_num (modem)
                                                   gprs_config_dev (sms)
                                                   i2c_temperature (temperature)
                                                   parse_imei (modem)
                                                   send_deviceready (modem)
                                                   state_battery_level (state_machine)
                                                   temp_sampled_data (modem)
                                                   temperature_subsampling_calculate (temperature)
    -------------------------------------------------------------------------
DATA16_I
  Relative segment, address: 2134 - 2135 (0x2 bytes), align: 1
  Segment part 54.            Intra module refs:   config_init
                                                   default_param_reset
           ENTRY                   ADDRESS         REF BY
           =====                   =======         ======
           g_pSysCfg               2134            check_for_OTA (ota)
                                                   gsm_init (modem)
                                                   parse_diag_command (debug)
                                                   system_boot (main_system)
    -------------------------------------------------------------------------
<CODE> 1 (was CODE)
  Relative segment, address: 00012906 - 00012917 (0x12 bytes), align: 1
  Segment part 70.            Intra module refs:   config_init
           ENTRY                   ADDRESS         REF BY
           =====                   =======         ======
           check_address_empty     00012906 
    -------------------------------------------------------------------------
<CODE> 1 (was CODE)
  Relative segment, address: 00012EEE - 00012EF7 (0xa bytes), align: 1
  Segment part 81.
           ENTRY                   ADDRESS         REF BY
           =====                   =======         ======
           cfgGetAppMode           00012EEE        alarm_test_sensor (alarms)
                                                   i2c_temperature (temperature)
                                                   resistance_to_temperature (temperature)
                                                   temperature_subsampling_calculate (temperature)
    -------------------------------------------------------------------------
DATA16_I
  Relative segment, address: 2136 - 213B (0x6 bytes), align: 1
  Segment part 56.            Intra module refs:   default_param_reset
           LOCAL                   ADDRESS         
           =====                   =======         
           g_szAppModeStrings      2136 
    -------------------------------------------------------------------------
<CODE,LOW_MEM> 1 (was CODE)
  Relative segment, address: BA62 - BB6D (0x10c bytes), align: 1
  Segment part 83.            Intra module refs:   config_init
           ENTRY                   ADDRESS         REF BY
           =====                   =======         ======
           default_param_reset     BA62 
               calls direct
    -------------------------------------------------------------------------
DATA16_Z
  Relative segment, address: 21DE - 21DF (0x2 bytes), align: 1
  Segment part 59.            Intra module refs:   set_sen
                                                   setvalue
           ENTRY                   ADDRESS         REF BY
           =====                   =======         ======
           dur_hot                 21DE 
    -------------------------------------------------------------------------
DATA16_Z
  Relative segment, address: 21E0 - 21E1 (0x2 bytes), align: 1
  Segment part 60.            Intra module refs:   set_sen
                                                   setvalue
           ENTRY                   ADDRESS         REF BY
           =====                   =======         ======
           dur_cold                21E0 
    -------------------------------------------------------------------------
DATA16_Z
  Relative segment, address: 21E2 - 21E5 (0x4 bytes), align: 1
  Segment part 61.            Intra module refs:   set_sen
                                                   setvalue
           ENTRY                   ADDRESS         REF BY
           =====                   =======         ======
           temp_hot_float          21E2 
    -------------------------------------------------------------------------
DATA16_Z
  Relative segment, address: 21E6 - 21E9 (0x4 bytes), align: 1
  Segment part 62.            Intra module refs:   set_sen
                                                   setvalue
           ENTRY                   ADDRESS         REF BY
           =====                   =======         ======
           temp_cold_float         21E6 
    -------------------------------------------------------------------------
DATA16_Z
  Relative segment, address: 22DD - 22DD (0x1 bytes), align: 0
  Segment part 63.            Intra module refs:   config_parse_configuration_sms
                                                   process_sId
                                                   setvalue
           ENTRY                   ADDRESS         REF BY
           =====                   =======         ======
           al_flag                 22DD 
    -------------------------------------------------------------------------
DATA16_I
  Relative segment, address: 2175 - 21B0 (0x3c bytes), align: 0
  Segment part 64.            Intra module refs:   process_kvp
           ENTRY                   ADDRESS         REF BY
           =====                   =======         ======
           g_keyval                2175 
    -------------------------------------------------------------------------
<CODE,LOW_MEM> 1 (was CODE)
  Relative segment, address: 7A4A - 7A7B (0x32 bytes), align: 1
  Segment part 95.            Intra module refs:   setvalue
           ENTRY                   ADDRESS         REF BY
           =====                   =======         ======
           parse_value_float       7A4A 
               calls direct
    -------------------------------------------------------------------------
<CODE,LOW_MEM> 1 (was CODE)
  Relative segment, address: 7A7C - 7A85 (0xa bytes), align: 1
  Segment part 96.            Intra module refs:   parse_value
                                                   parse_value_float
           LOCAL                   ADDRESS         
           =====                   =======         
           ?Subroutine0            7A7C 
    -------------------------------------------------------------------------
<CODE,LOW_MEM> 1 (was CODE)
  Relative segment, address: 7A86 - 7EB9 (0x434 bytes), align: 1
  Segment part 97.            Intra module refs:   process_kvp
           ENTRY                   ADDRESS         REF BY
           =====                   =======         ======
           setvalue                7A86 
               calls direct
    -------------------------------------------------------------------------
<CODE,LOW_MEM> 1 (was CODE)
  Relative segment, address: 7EBA - 7EBF (0x6 bytes), align: 1
  Segment part 98.            Intra module refs:   setvalue
           LOCAL                   ADDRESS         
           =====                   =======         
           ?Subroutine14           7EBA 
    -------------------------------------------------------------------------
<CODE,LOW_MEM> 1 (was CODE)
  Relative segment, address: 7EC0 - 7EC5 (0x6 bytes), align: 1
  Segment part 99.            Intra module refs:   ?Subroutine14
                                                   setvalue
    -------------------------------------------------------------------------
<CODE,LOW_MEM> 1 (was CODE)
  Relative segment, address: 7EC6 - 7ED1 (0xc bytes), align: 1
  Segment part 100.           Intra module refs:   setvalue
           LOCAL                   ADDRESS         
           =====                   =======         
           ?Subroutine12           7EC6 
    -------------------------------------------------------------------------
<CODE,LOW_MEM> 1 (was CODE)
  Relative segment, address: 7ED2 - 7EDD (0xc bytes), align: 1
  Segment part 101.           Intra module refs:   setvalue
           LOCAL                   ADDRESS         
           =====                   =======         
           ?Subroutine11           7ED2 
    -------------------------------------------------------------------------
<CODE,LOW_MEM> 1 (was CODE)
  Relative segment, address: 7EDE - 7EE9 (0xc bytes), align: 1
  Segment part 102.           Intra module refs:   setvalue
           LOCAL                   ADDRESS         
           =====                   =======         
           ?Subroutine9            7EDE 
    -------------------------------------------------------------------------
<CODE,LOW_MEM> 1 (was CODE)
  Relative segment, address: 7EEA - 7EEB (0x2 bytes), align: 1
  Segment part 103.           Intra module refs:   setvalue
           LOCAL                   ADDRESS         
           =====                   =======         
           ?Subroutine8            7EEA 
    -------------------------------------------------------------------------
<CODE,LOW_MEM> 1 (was CODE)
  Relative segment, address: 7EEC - 7EF5 (0xa bytes), align: 1
  Segment part 104.           Intra module refs:   ?Subroutine11
                                                   ?Subroutine8
           LOCAL                   ADDRESS         
           =====                   =======         
           ?Subroutine16           7EEC 
    -------------------------------------------------------------------------
<CODE,LOW_MEM> 1 (was CODE)
  Relative segment, address: 7EF6 - 7EFF (0xa bytes), align: 1
  Segment part 105.           Intra module refs:   default_param_reset
                                                   setvalue
           LOCAL                   ADDRESS         
           =====                   =======         
           ?Subroutine4            7EF6 
    -------------------------------------------------------------------------
<CODE,LOW_MEM> 1 (was CODE)
  Relative segment, address: 7F00 - 7F0B (0xc bytes), align: 1
  Segment part 106.           Intra module refs:   default_param_reset
                                                   setvalue
           LOCAL                   ADDRESS         
           =====                   =======         
           ?Subroutine3            7F00 
    -------------------------------------------------------------------------
<CODE,LOW_MEM> 1 (was CODE)
  Relative segment, address: 7F0C - 7F11 (0x6 bytes), align: 1
  Segment part 107.           Intra module refs:   setvalue
           LOCAL                   ADDRESS         
           =====                   =======         
           ?Subroutine2            7F0C 
    -------------------------------------------------------------------------
<CODE,LOW_MEM> 1 (was CODE)
  Relative segment, address: 7F12 - 7F1F (0xe bytes), align: 1
  Segment part 108.           Intra module refs:   ?Subroutine2
                                                   setvalue
           LOCAL                   ADDRESS         
           =====                   =======         
           ?Subroutine17           7F12 
    -------------------------------------------------------------------------
<CODE,LOW_MEM> 1 (was CODE)
  Relative segment, address: 7F20 - 7F51 (0x32 bytes), align: 1
  Segment part 109.           Intra module refs:   Segment part 99
                                                   setvalue
           ENTRY                   ADDRESS         REF BY
           =====                   =======         ======
           parse_value             7F20 
               calls direct
    -------------------------------------------------------------------------
<CODE> 1 (was CODE)
  Relative segment, address: 0001186C - 000118AF (0x44 bytes), align: 1
  Segment part 84.
           ENTRY                   ADDRESS         REF BY
           =====                   =======         ======
           config_init             0001186C        system_boot (main_system)
               calls direct
    -------------------------------------------------------------------------
<CODE,LOW_MEM> 1 (was CODE)
  Relative segment, address: BC5E - BD49 (0xec bytes), align: 1
  Segment part 92.            Intra module refs:   config_parse_configuration_http
           ENTRY                   ADDRESS         REF BY
           =====                   =======         ======
           config_parse_configuration_sms
                                   BC5E            dev_sms_parsing (sms)
                                                   parse_diag_command (debug)
               calls direct
    -------------------------------------------------------------------------
<CODE> 1 (was CODE)
  Relative segment, address: 00012C36 - 00012C43 (0xe bytes), align: 1
  Segment part 93.
           ENTRY                   ADDRESS         REF BY
           =====                   =======         ======
           config_parse_configuration_http
                                   00012C36        gprs_config_dev (sms)
               calls direct
    -------------------------------------------------------------------------
<CODE> 1 (was CODE)
  Relative segment, address: 000100C0 - 0001017D (0xbe bytes), align: 1
  Segment part 86.            Intra module refs:   process_sId
                                                   setvalue
           ENTRY                   ADDRESS         REF BY
           =====                   =======         ======
           set_sen                 000100C0 
               calls direct
    -------------------------------------------------------------------------
<CODE> 1 (was CODE)
  Relative segment, address: 000128F4 - 00012905 (0x12 bytes), align: 1
  Segment part 87.            Intra module refs:   set_sen
           LOCAL                   ADDRESS         
           =====                   =======         
           ?Subroutine10           000128F4 
    -------------------------------------------------------------------------
<CODE> 1 (was CODE)
  Relative segment, address: 00012D4A - 00012D55 (0xc bytes), align: 1
  Segment part 88.            Intra module refs:   set_sen
           LOCAL                   ADDRESS         
           =====                   =======         
           ?Subroutine7            00012D4A 
    -------------------------------------------------------------------------
<CODE> 1 (was CODE)
  Relative segment, address: 00012034 - 0001205F (0x2c bytes), align: 1
  Segment part 89.            Intra module refs:   process_sId
                                                   setvalue
           ENTRY                   ADDRESS         REF BY
           =====                   =======         ======
           id_sel                  00012034 
    -------------------------------------------------------------------------
<CODE> 1 (was CODE)
  Relative segment, address: 000118F4 - 00011937 (0x44 bytes), align: 1
  Segment part 91.            Intra module refs:   config_parse_configuration_sms
           ENTRY                   ADDRESS         REF BY
           =====                   =======         ======
           process_kvp             000118F4 
               calls direct
    -------------------------------------------------------------------------
<CODE> 1 (was CODE)
  Relative segment, address: 00012774 - 00012787 (0x14 bytes), align: 1
  Segment part 90.            Intra module refs:   config_parse_configuration_sms
           ENTRY                   ADDRESS         REF BY
           =====                   =======         ======
           process_sId             00012774 
               calls direct
    -------------------------------------------------------------------------
<CODE> 1 (was CODE)
  Relative segment, address: 00012BC6 - 00012BD3 (0xe bytes), align: 1
  Segment part 110.           Intra module refs:   parse_value
                                                   parse_value_float
           LOCAL                   ADDRESS         
           =====                   =======         
           ?Subroutine13           00012BC6 
    -------------------------------------------------------------------------
<CODE> 1 (was CODE)
  Relative segment, address: 000127D4 - 000127E5 (0x12 bytes), align: 1
  Segment part 111.           Intra module refs:   parse_value
                                                   parse_value_float
           LOCAL                   ADDRESS         
           =====                   =======         
           ?Subroutine6            000127D4 
    -------------------------------------------------------------------------
<CODE> 1 (was CODE)
  Relative segment, address: 00010A24 - 00010AAD (0x8a bytes), align: 1
  Segment part 82.            Intra module refs:   default_param_reset
           ENTRY                   ADDRESS         REF BY
           =====                   =======         ======
           config_default_configuration
                                   00010A24        parse_diag_command (debug)
    -------------------------------------------------------------------------
DATA16_ID
  Relative segment, address: 6A40 - 6A40 (0x1 bytes), align: 0
  Segment part 48.            Intra module refs:   g_iSystemSetup
    -------------------------------------------------------------------------
DATA16_ID
  Relative segment, address: 69FE - 69FF (0x2 bytes), align: 1
  Segment part 53.            Intra module refs:   g_pDevCfg
    -------------------------------------------------------------------------
DATA16_ID
  Relative segment, address: 6A00 - 6A01 (0x2 bytes), align: 1
  Segment part 55.            Intra module refs:   g_pSysCfg
    -------------------------------------------------------------------------
DATA16_ID
  Relative segment, address: 6A02 - 6A07 (0x6 bytes), align: 1
  Segment part 57.            Intra module refs:   g_szAppModeStrings
    -------------------------------------------------------------------------
DATA16_ID
  Relative segment, address: 6A41 - 6A7C (0x3c bytes), align: 0
  Segment part 65.            Intra module refs:   g_keyval
    -------------------------------------------------------------------------
DATA16_C
  Relative segment, address: 55AF - 55B2 (0x4 bytes), align: 0
  Segment part 2.             Intra module refs:   Segment part 57
    -------------------------------------------------------------------------
DATA16_C
  Relative segment, address: 55B3 - 55B6 (0x4 bytes), align: 0
  Segment part 3.             Intra module refs:   Segment part 57
    -------------------------------------------------------------------------
DATA16_C
  Relative segment, address: 55B7 - 55B7 (0x1 bytes), align: 0
  Segment part 4.             Intra module refs:   Segment part 57
    -------------------------------------------------------------------------
DATA16_C
  Relative segment, address: 55B8 - 55C8 (0x11 bytes), align: 0
  Segment part 7.             Intra module refs:   default_param_reset
    -------------------------------------------------------------------------
DATA16_C
  Relative segment, address: 55C9 - 55D6 (0xe bytes), align: 0
  Segment part 8.             Intra module refs:   default_param_reset
    -------------------------------------------------------------------------
DATA16_C
  Relative segment, address: 55D7 - 55DD (0x7 bytes), align: 0
  Segment part 9.             Intra module refs:   default_param_reset
    -------------------------------------------------------------------------
DATA16_C
  Relative segment, address: 55DE - 55E2 (0x5 bytes), align: 0
  Segment part 10.            Intra module refs:   default_param_reset
    -------------------------------------------------------------------------
DATA16_C
  Relative segment, address: 55E3 - 5604 (0x22 bytes), align: 0
  Segment part 11.            Intra module refs:   default_param_reset
    -------------------------------------------------------------------------
DATA16_C
  Relative segment, address: 5605 - 5614 (0x10 bytes), align: 0
  Segment part 12.            Intra module refs:   config_init
    -------------------------------------------------------------------------
DATA16_C
  Relative segment, address: 5615 - 5623 (0xf bytes), align: 0
  Segment part 15.            Intra module refs:   config_parse_configuration_sms
                                                   setvalue
    -------------------------------------------------------------------------
DATA16_C
  Relative segment, address: 5624 - 5626 (0x3 bytes), align: 0
  Segment part 16.            Intra module refs:   config_parse_configuration_sms
    -------------------------------------------------------------------------
DATA16_C
  Relative segment, address: 5627 - 5628 (0x2 bytes), align: 0
  Segment part 17.            Intra module refs:   config_parse_configuration_sms
    -------------------------------------------------------------------------
DATA16_C
  Relative segment, address: 5629 - 562A (0x2 bytes), align: 0
  Segment part 18.            Intra module refs:   config_parse_configuration_sms
    -------------------------------------------------------------------------
DATA16_C
  Relative segment, address: 562B - 5640 (0x16 bytes), align: 0
  Segment part 22.            Intra module refs:   set_sen
    -------------------------------------------------------------------------
DATA16_C
  Relative segment, address: 5641 - 5643 (0x3 bytes), align: 0
  Segment part 23.            Intra module refs:   set_sen
                                                   setvalue
    -------------------------------------------------------------------------
DATA16_C
  Relative segment, address: 5644 - 5655 (0x12 bytes), align: 0
  Segment part 24.            Intra module refs:   set_sen
    -------------------------------------------------------------------------
DATA16_C
  Relative segment, address: 5656 - 566A (0x15 bytes), align: 0
  Segment part 25.            Intra module refs:   set_sen
    -------------------------------------------------------------------------
DATA16_C
  Relative segment, address: 566B - 567B (0x11 bytes), align: 0
  Segment part 26.            Intra module refs:   set_sen
    -------------------------------------------------------------------------
DATA16_C
  Relative segment, address: 567C - 568E (0x13 bytes), align: 0
  Segment part 27.            Intra module refs:   setvalue
    -------------------------------------------------------------------------
DATA16_C
  Relative segment, address: 568F - 56A1 (0x13 bytes), align: 0
  Segment part 28.            Intra module refs:   setvalue
    -------------------------------------------------------------------------
DATA16_C
  Relative segment, address: 56A2 - 56AD (0xc bytes), align: 0
  Segment part 29.            Intra module refs:   setvalue
    -------------------------------------------------------------------------
DATA16_C
  Relative segment, address: 56AE - 56C2 (0x15 bytes), align: 0
  Segment part 30.            Intra module refs:   setvalue
    -------------------------------------------------------------------------
DATA16_C
  Relative segment, address: 56C3 - 56D6 (0x14 bytes), align: 0
  Segment part 31.            Intra module refs:   setvalue
    -------------------------------------------------------------------------
DATA16_C
  Relative segment, address: 56D7 - 56EB (0x15 bytes), align: 0
  Segment part 32.            Intra module refs:   setvalue
    -------------------------------------------------------------------------
DATA16_C
  Relative segment, address: 56EC - 56FF (0x14 bytes), align: 0
  Segment part 33.            Intra module refs:   setvalue
    -------------------------------------------------------------------------
DATA16_C
  Relative segment, address: 5700 - 5709 (0xa bytes), align: 0
  Segment part 34.            Intra module refs:   setvalue
    -------------------------------------------------------------------------
DATA16_C
  Relative segment, address: 570A - 5712 (0x9 bytes), align: 0
  Segment part 35.            Intra module refs:   setvalue
    -------------------------------------------------------------------------
DATA16_C
  Relative segment, address: 5713 - 571E (0xc bytes), align: 0
  Segment part 36.            Intra module refs:   setvalue
    -------------------------------------------------------------------------
DATA16_C
  Relative segment, address: 571F - 5729 (0xb bytes), align: 0
  Segment part 37.            Intra module refs:   setvalue
    -------------------------------------------------------------------------
DATA16_C
  Relative segment, address: 572A - 573A (0x11 bytes), align: 0
  Segment part 38.            Intra module refs:   setvalue
    -------------------------------------------------------------------------
DATA16_C
  Relative segment, address: 573B - 574A (0x10 bytes), align: 0
  Segment part 39.            Intra module refs:   setvalue
    -------------------------------------------------------------------------
DATA16_C
  Relative segment, address: 574B - 575A (0x10 bytes), align: 0
  Segment part 40.            Intra module refs:   setvalue
    -------------------------------------------------------------------------
DATA16_C
  Relative segment, address: 575B - 5766 (0xc bytes), align: 0
  Segment part 41.            Intra module refs:   setvalue
    -------------------------------------------------------------------------
DATA16_C
  Relative segment, address: 5767 - 576A (0x4 bytes), align: 0
  Segment part 42.            Intra module refs:   setvalue

    *************************************************************************

  FILE NAME : E:\NLAU_FISM_SDK_july20\tempsensor_v1\IAR\nlau_fism_1_aug\NLAU_FISM_SDK\tempsensor_v1\IAR\Fism\Obj\config_profiles.r43
    *************************************************************************

  FILE NAME : E:\NLAU_FISM_SDK_july20\tempsensor_v1\IAR\nlau_fism_1_aug\NLAU_FISM_SDK\tempsensor_v1\IAR\Fism\Obj\crc.r43
  PROGRAM MODULE, NAME : crc

  SEGMENTS IN THE MODULE
  ======================
DATA16_AN
  Relative segment, address: 0152 - 0153 (0x2 bytes), align: 0
  Segment part 1. ROOT        Intra module refs:   crc_get
           ENTRY                   ADDRESS         REF BY
           =====                   =======         ======
           _A_CRCDIRB_L            0152 
           LOCAL                   ADDRESS         
           =====                   =======         
           CRCDIRB                 0152 
           CRCDIRB_H               0153 
           CRCDIRB_L               0152 
    -------------------------------------------------------------------------
DATA16_AN
  Relative segment, address: 0154 - 0155 (0x2 bytes), align: 0
  Segment part 2. ROOT        Intra module refs:   crc_get
           ENTRY                   ADDRESS         REF BY
           =====                   =======         ======
           _A_CRCINIRES_L          0154 
           LOCAL                   ADDRESS         
           =====                   =======         
           CRCINIRES               0154 
           CRCINIRES_H             0155 
           CRCINIRES_L             0154 
    -------------------------------------------------------------------------
<CODE> 1 (was CODE)
  Relative segment, address: 0001253E - 00012555 (0x18 bytes), align: 1
  Segment part 14.
           ENTRY                   ADDRESS         REF BY
           =====                   =======         ======
           crc_get                 0001253E        ack_to_fridge (fridge_data)
                                                   check_data_crc (fridge_data)
                                                   ota_process (ota)

    *************************************************************************

  FILE NAME : E:\NLAU_FISM_SDK_july20\tempsensor_v1\IAR\nlau_fism_1_aug\NLAU_FISM_SDK\tempsensor_v1\IAR\Fism\Obj\crc32.r43
    *************************************************************************

  FILE NAME : E:\NLAU_FISM_SDK_july20\tempsensor_v1\IAR\nlau_fism_1_aug\NLAU_FISM_SDK\tempsensor_v1\IAR\Fism\Obj\cs.r43
    *************************************************************************

  FILE NAME : E:\NLAU_FISM_SDK_july20\tempsensor_v1\IAR\nlau_fism_1_aug\NLAU_FISM_SDK\tempsensor_v1\IAR\Fism\Obj\data_transmit.r43
    *************************************************************************

  FILE NAME : E:\NLAU_FISM_SDK_july20\tempsensor_v1\IAR\nlau_fism_1_aug\NLAU_FISM_SDK\tempsensor_v1\IAR\Fism\Obj\debug.r43
  PROGRAM MODULE, NAME : debug

  SEGMENTS IN THE MODULE
  ======================
DATA16_AN
  Relative segment, address: 05C0 - 05C1 (0x2 bytes), align: 0
  Segment part 1. ROOT        Intra module refs:   debug_init
           ENTRY                   ADDRESS         REF BY
           =====                   =======         ======
           _A_UCA0CTLW0_L          05C0 
           LOCAL                   ADDRESS         
           =====                   =======         
           UCA0CTLW0               05C0 
           UCA0CTLW0_H             05C1 
           UCA0CTLW0_L             05C0 
    -------------------------------------------------------------------------
DATA16_AN
  Relative segment, address: 05C6 - 05C7 (0x2 bytes), align: 0
  Segment part 2. ROOT        Intra module refs:   debug_init
           ENTRY                   ADDRESS         REF BY
           =====                   =======         ======
           _A_UCA0BRW_L            05C6 
           LOCAL                   ADDRESS         
           =====                   =======         
           UCA0BRW                 05C6 
           UCA0BRW_H               05C7 
           UCA0BRW_L               05C6 
    -------------------------------------------------------------------------
DATA16_AN
  Relative segment, address: 05C8 - 05C9 (0x2 bytes), align: 0
  Segment part 3. ROOT        Intra module refs:   debug_init
           ENTRY                   ADDRESS         REF BY
           =====                   =======         ======
           _A_UCA0MCTLW_L          05C8 
           LOCAL                   ADDRESS         
           =====                   =======         
           UCA0MCTLW               05C8 
           UCA0MCTLW_H             05C9 
           UCA0MCTLW_L             05C8 
    -------------------------------------------------------------------------
DATA16_AN
  Relative segment, address: 05CA - 05CB (0x2 bytes), align: 0
  Segment part 4. ROOT        Intra module refs:   debug_print
           ENTRY                   ADDRESS         REF BY
           =====                   =======         ======
           _A_UCA0STATW_L          05CA 
           LOCAL                   ADDRESS         
           =====                   =======         
           UCA0STATW               05CA 
           UCA0STATW_H             05CB 
           UCA0STATW_L             05CA 
    -------------------------------------------------------------------------
DATA16_AN
  Relative segment, address: 05CC - 05CD (0x2 bytes), align: 0
  Segment part 5. ROOT        Intra module refs:   USCI_A0_ISR
           ENTRY                   ADDRESS         REF BY
           =====                   =======         ======
           _A_UCA0RXBUF_L          05CC 
           LOCAL                   ADDRESS         
           =====                   =======         
           UCA0RXBUF               05CC 
           UCA0RXBUF_H             05CD 
           UCA0RXBUF_L             05CC 
    -------------------------------------------------------------------------
DATA16_AN
  Relative segment, address: 05CE - 05CF (0x2 bytes), align: 0
  Segment part 6. ROOT        Intra module refs:   debug_print
           ENTRY                   ADDRESS         REF BY
           =====                   =======         ======
           _A_UCA0TXBUF_L          05CE 
           LOCAL                   ADDRESS         
           =====                   =======         
           UCA0TXBUF               05CE 
           UCA0TXBUF_H             05CF 
           UCA0TXBUF_L             05CE 
    -------------------------------------------------------------------------
DATA16_AN
  Relative segment, address: 05DA - 05DB (0x2 bytes), align: 0
  Segment part 7. ROOT        Intra module refs:   disable_diagnosis
                                                   enable_diagnosis
           ENTRY                   ADDRESS         REF BY
           =====                   =======         ======
           _A_UCA0IE_L             05DA 
           LOCAL                   ADDRESS         
           =====                   =======         
           UCA0IE                  05DA 
           UCA0IE_H                05DB 
           UCA0IE_L                05DA 
    -------------------------------------------------------------------------
DATA16_AN
  Relative segment, address: 05DE - 05DF (0x2 bytes), align: 0
  Segment part 8. ROOT        Intra module refs:   USCI_A0_ISR
           ENTRY                   ADDRESS         REF BY
           =====                   =======         ======
           _A_UCA0IV_L             05DE 
           LOCAL                   ADDRESS         
           =====                   =======         
           UCA0IV                  05DE 
           UCA0IV_H                05DF 
           UCA0IV_L                05DE 
    -------------------------------------------------------------------------
DATA16_Z
  Relative segment, address: 22DE - 2409 (0x12c bytes), align: 0
  Segment part 53.            Intra module refs:   USCI_A0_ISR
                                                   check_diagnosis_command
           ENTRY                   ADDRESS         REF BY
           =====                   =======         ======
           diagnosis_buff          22DE 
    -------------------------------------------------------------------------
DATA16_Z
  Relative segment, address: 240A - 2535 (0x12c bytes), align: 0
  Segment part 54.            Intra module refs:   check_diagnosis_command
                                                   parse_diag_command
           ENTRY                   ADDRESS         REF BY
           =====                   =======         ======
           diag_command            240A 
    -------------------------------------------------------------------------
DATA16_Z
  Relative segment, address: 2536 - 2536 (0x1 bytes), align: 0
  Segment part 55.            Intra module refs:   USCI_A0_ISR
                                                   check_diagnosis_command
           ENTRY                   ADDRESS         REF BY
           =====                   =======         ======
           diag_buff_len           2536 
    -------------------------------------------------------------------------
<CODE> 1 (was CODE)
  Relative segment, address: 0001248A - 000124A3 (0x1a bytes), align: 1
  Segment part 59.
           ENTRY                   ADDRESS         REF BY
           =====                   =======         ======
           debug_init              0001248A        main (main_system)
    -------------------------------------------------------------------------
<CODE> 1 (was CODE)
  Relative segment, address: 000123C6 - 000123E1 (0x1c bytes), align: 1
  Segment part 60.            Intra module refs:   parse_diag_command
           ENTRY                   ADDRESS         REF BY
           =====                   =======         ======
           debug_print             000123C6        ?Subroutine0 (device_alarms)
                                                   ADC12_ISR (temperature)
                                                   ack_to_fridge (fridge_data)
                                                   batt_current (battery)
                                                   batt_getlevel (battery)
                                                   check_batt_state (battery)
                                                   check_data_crc (fridge_data)
                                                   check_for_OTA (ota)
                                                   config_init (config)
                                                   config_parse_configuration_sms (config)
                                                   dev_sms_cofig (sms)
                                                   event_reboot_system (events)
                                                   event_upload_samples (events)
                                                   events_health_check (events)
                                                   get_local_time (packet_format)
                                                   get_sim_num (modem)
                                                   gsm_exit_sleep (modem)
                                                   gsm_init (modem)
                                                   i2c_temperature (temperature)
                                                   main (main_system)
                                                   ota_process (ota)
                                                   ota_sms (sms)
                                                   parse_base_station_info (modem)
                                                   read_apn (apn_config)
                                                   read_indexes (spi_flash)
                                                   read_packets (spi_flash)
                                                   save_packet (spi_flash)
                                                   send_cmd_wait (modem_uart)
                                                   send_data_to_server (packet_format)
                                                   send_deviceready (modem)
                                                   set_sen (config)
                                                   setvalue (config)
                                                   system_boot (main_system)
                                                   temp_sampled_data (modem)
                                                   temperature_analog_to_digital_conversion (temperature)
                                                   temperature_subsampling_calculate (temperature)
                                                   totalsms_count (sms)
    -------------------------------------------------------------------------
ISR_CODE
  Relative segment, address: 6AD2 - 6B15 (0x44 bytes), align: 1
  Segment part 68.
           ENTRY                   ADDRESS         REF BY
           =====                   =======         ======
           USCI_A0_ISR             6AD2            main (main_system)
               interrupt function
               calls direct
    -------------------------------------------------------------------------
<CODE> 1 (was CODE)
  Relative segment, address: 00012FB4 - 00012FB9 (0x6 bytes), align: 1
  Segment part 61.            Intra module refs:   parse_diag_command
           ENTRY                   ADDRESS         REF BY
           =====                   =======         ======
           enable_diagnosis        00012FB4        check_for_OTA (ota)
                                                   event_SIM_check_incoming_msgs (events)
                                                   event_subsample_temperature (events)
                                                   event_upload_samples (events)
                                                   events_health_check (events)
                                                   main (main_system)
    -------------------------------------------------------------------------
<CODE> 1 (was CODE)
  Relative segment, address: 00012FAE - 00012FB3 (0x6 bytes), align: 1
  Segment part 62.
           ENTRY                   ADDRESS         REF BY
           =====                   =======         ======
           disable_diagnosis       00012FAE        check_for_OTA (ota)
                                                   event_SIM_check_incoming_msgs (events)
                                                   event_subsample_temperature (events)
                                                   event_upload_samples (events)
                                                   events_health_check (events)
    -------------------------------------------------------------------------
<CODE> 1 (was CODE)
  Relative segment, address: 00011C28 - 00011C5F (0x38 bytes), align: 1
  Segment part 63.
           ENTRY                   ADDRESS         REF BY
           =====                   =======         ======
           check_diagnosis_command
                                   00011C28        main (main_system)
               calls direct
    -------------------------------------------------------------------------
<CODE,LOW_MEM> 1 (was CODE)
  Relative segment, address: 8BB0 - 8E53 (0x2a4 bytes), align: 1
  Segment part 64.
           ENTRY                   ADDRESS         REF BY
           =====                   =======         ======
           parse_diag_command      8BB0            main (main_system)
               calls direct
    -------------------------------------------------------------------------
<CODE> 1 (was CODE)
  Relative segment, address: 00012E3A - 00012E43 (0xa bytes), align: 1
  Segment part 65.            Intra module refs:   parse_diag_command
           LOCAL                   ADDRESS         
           =====                   =======         
           ?Subroutine2            00012E3A 
    -------------------------------------------------------------------------
<CODE> 1 (was CODE)
  Relative segment, address: 00012E44 - 00012E4D (0xa bytes), align: 1
  Segment part 66.            Intra module refs:   parse_diag_command
           LOCAL                   ADDRESS         
           =====                   =======         
           ?Subroutine1            00012E44 
    -------------------------------------------------------------------------
<CODE> 1 (was CODE)
  Relative segment, address: 00012F5A - 00012F61 (0x8 bytes), align: 1
  Segment part 67.            Intra module refs:   parse_diag_command
           LOCAL                   ADDRESS         
           =====                   =======         
           ?Subroutine0            00012F5A 
    -------------------------------------------------------------------------
DATA16_Z
  Relative segment, address: 2537 - 2537 (0x1 bytes), align: 0
  Segment part 56.            Intra module refs:   parse_diag_command
           LOCAL                   ADDRESS         
           =====                   =======         
           parse_diag_command::ota_check
                                   2537 
    -------------------------------------------------------------------------
DATA16_Z
  Relative segment, address: 2538 - 2538 (0x1 bytes), align: 0
  Segment part 57.            Intra module refs:   parse_diag_command
           LOCAL                   ADDRESS         
           =====                   =======         
           parse_diag_command::modem_command
                                   2538 
    -------------------------------------------------------------------------
DATA16_Z
  Relative segment, address: 2539 - 2539 (0x1 bytes), align: 0
  Segment part 58.            Intra module refs:   parse_diag_command
           LOCAL                   ADDRESS         
           =====                   =======         
           parse_diag_command::config_command
                                   2539 
    -------------------------------------------------------------------------
DATA16_C
  Relative segment, address: 576B - 576C (0x2 bytes), align: 0
  Segment part 10.            Intra module refs:   parse_diag_command
    -------------------------------------------------------------------------
DATA16_C
  Relative segment, address: 576D - 5793 (0x27 bytes), align: 0
  Segment part 11.            Intra module refs:   parse_diag_command
    -------------------------------------------------------------------------
DATA16_C
  Relative segment, address: 5794 - 57B3 (0x20 bytes), align: 0
  Segment part 12.            Intra module refs:   parse_diag_command
    -------------------------------------------------------------------------
DATA16_C
  Relative segment, address: 57B4 - 57CA (0x17 bytes), align: 0
  Segment part 13.            Intra module refs:   parse_diag_command
    -------------------------------------------------------------------------
DATA16_C
  Relative segment, address: 57CB - 57E0 (0x16 bytes), align: 0
  Segment part 14.            Intra module refs:   parse_diag_command
    -------------------------------------------------------------------------
DATA16_C
  Relative segment, address: 57E1 - 5802 (0x22 bytes), align: 0
  Segment part 15.            Intra module refs:   parse_diag_command
    -------------------------------------------------------------------------
DATA16_C
  Relative segment, address: 5803 - 5836 (0x34 bytes), align: 0
  Segment part 16.            Intra module refs:   parse_diag_command
    -------------------------------------------------------------------------
DATA16_C
  Relative segment, address: 5837 - 585D (0x27 bytes), align: 0
  Segment part 17.            Intra module refs:   parse_diag_command
    -------------------------------------------------------------------------
DATA16_C
  Relative segment, address: 585E - 5882 (0x25 bytes), align: 0
  Segment part 18.            Intra module refs:   parse_diag_command
    -------------------------------------------------------------------------
DATA16_C
  Relative segment, address: 5883 - 58B1 (0x2f bytes), align: 0
  Segment part 19.            Intra module refs:   parse_diag_command
    -------------------------------------------------------------------------
DATA16_C
  Relative segment, address: 58B2 - 58CC (0x1b bytes), align: 0
  Segment part 20.            Intra module refs:   parse_diag_command
    -------------------------------------------------------------------------
DATA16_C
  Relative segment, address: 58CD - 58EB (0x1f bytes), align: 0
  Segment part 21.            Intra module refs:   parse_diag_command
    -------------------------------------------------------------------------
DATA16_C
  Relative segment, address: 58EC - 5911 (0x26 bytes), align: 0
  Segment part 22.            Intra module refs:   parse_diag_command
    -------------------------------------------------------------------------
DATA16_C
  Relative segment, address: 5912 - 5933 (0x22 bytes), align: 0
  Segment part 23.            Intra module refs:   parse_diag_command
    -------------------------------------------------------------------------
DATA16_C
  Relative segment, address: 5934 - 5971 (0x3e bytes), align: 0
  Segment part 24.            Intra module refs:   parse_diag_command
    -------------------------------------------------------------------------
DATA16_C
  Relative segment, address: 5972 - 5973 (0x2 bytes), align: 0
  Segment part 25.            Intra module refs:   parse_diag_command
    -------------------------------------------------------------------------
DATA16_C
  Relative segment, address: 5974 - 599A (0x27 bytes), align: 0
  Segment part 26.            Intra module refs:   parse_diag_command
    -------------------------------------------------------------------------
DATA16_C
  Relative segment, address: 599B - 59B2 (0x18 bytes), align: 0
  Segment part 27.            Intra module refs:   parse_diag_command
    -------------------------------------------------------------------------
DATA16_C
  Relative segment, address: 59B3 - 59CC (0x1a bytes), align: 0
  Segment part 28.            Intra module refs:   parse_diag_command
    -------------------------------------------------------------------------
DATA16_C
  Relative segment, address: 59CD - 59CE (0x2 bytes), align: 0
  Segment part 29.            Intra module refs:   parse_diag_command
    -------------------------------------------------------------------------
DATA16_C
  Relative segment, address: 59CF - 59F4 (0x26 bytes), align: 0
  Segment part 30.            Intra module refs:   parse_diag_command
    -------------------------------------------------------------------------
DATA16_C
  Relative segment, address: 59F5 - 59F6 (0x2 bytes), align: 0
  Segment part 31.            Intra module refs:   parse_diag_command
    -------------------------------------------------------------------------
DATA16_C
  Relative segment, address: 59F7 - 5A02 (0xc bytes), align: 0
  Segment part 32.            Intra module refs:   parse_diag_command
    -------------------------------------------------------------------------
DATA16_C
  Relative segment, address: 5A03 - 5A04 (0x2 bytes), align: 0
  Segment part 33.            Intra module refs:   parse_diag_command
    -------------------------------------------------------------------------
DATA16_C
  Relative segment, address: 5A05 - 5A1C (0x18 bytes), align: 0
  Segment part 34.            Intra module refs:   parse_diag_command
    -------------------------------------------------------------------------
DATA16_C
  Relative segment, address: 5A1D - 5A1F (0x3 bytes), align: 0
  Segment part 35.            Intra module refs:   parse_diag_command
    -------------------------------------------------------------------------
DATA16_C
  Relative segment, address: 5A20 - 5A21 (0x2 bytes), align: 0
  Segment part 36.            Intra module refs:   parse_diag_command
    -------------------------------------------------------------------------
DATA16_C
  Relative segment, address: 5A22 - 5A7A (0x59 bytes), align: 0
  Segment part 37.            Intra module refs:   parse_diag_command
    -------------------------------------------------------------------------
DATA16_C
  Relative segment, address: 5A7B - 5A7C (0x2 bytes), align: 0
  Segment part 38.            Intra module refs:   parse_diag_command
    -------------------------------------------------------------------------
DATA16_C
  Relative segment, address: 5A7D - 5A7E (0x2 bytes), align: 0
  Segment part 39.            Intra module refs:   parse_diag_command
    -------------------------------------------------------------------------
DATA16_C
  Relative segment, address: 5A7F - 5AA5 (0x27 bytes), align: 0
  Segment part 40.            Intra module refs:   parse_diag_command
    -------------------------------------------------------------------------
DATA16_C
  Relative segment, address: 5AA6 - 5AA9 (0x4 bytes), align: 0
  Segment part 41.            Intra module refs:   parse_diag_command
    -------------------------------------------------------------------------
DATA16_C
  Relative segment, address: 5AAA - 5AAD (0x4 bytes), align: 0
  Segment part 42.            Intra module refs:   parse_diag_command
    -------------------------------------------------------------------------
DATA16_C
  Relative segment, address: 5AAE - 5AB2 (0x5 bytes), align: 0
  Segment part 43.            Intra module refs:   parse_diag_command
    -------------------------------------------------------------------------
DATA16_C
  Relative segment, address: 5AB3 - 5AB4 (0x2 bytes), align: 0
  Segment part 44.            Intra module refs:   parse_diag_command
    -------------------------------------------------------------------------
DATA16_C
  Relative segment, address: 5AB5 - 5AE2 (0x2e bytes), align: 0
  Segment part 45.            Intra module refs:   parse_diag_command
    -------------------------------------------------------------------------
DATA16_C
  Relative segment, address: 5AE3 - 5AE4 (0x2 bytes), align: 0
  Segment part 46.            Intra module refs:   parse_diag_command
    -------------------------------------------------------------------------
DATA16_C
  Relative segment, address: 5AE5 - 5AE7 (0x3 bytes), align: 0
  Segment part 47.            Intra module refs:   parse_diag_command
    -------------------------------------------------------------------------
DATA16_C
  Relative segment, address: 5AE8 - 5AEA (0x3 bytes), align: 0
  Segment part 48.            Intra module refs:   parse_diag_command
    -------------------------------------------------------------------------
DATA16_C
  Relative segment, address: 5AEB - 5AED (0x3 bytes), align: 0
  Segment part 49.            Intra module refs:   parse_diag_command
    -------------------------------------------------------------------------
DATA16_C
  Relative segment, address: 5AEE - 5AF0 (0x3 bytes), align: 0
  Segment part 50.            Intra module refs:   parse_diag_command
    -------------------------------------------------------------------------
DATA16_C
  Relative segment, address: 5AF1 - 5AF8 (0x8 bytes), align: 0
  Segment part 51.            Intra module refs:   parse_diag_command
    -------------------------------------------------------------------------
DATA16_C
  Relative segment, address: 5AF9 - 5B13 (0x1b bytes), align: 0
  Segment part 52.            Intra module refs:   parse_diag_command

    *************************************************************************

  FILE NAME : E:\NLAU_FISM_SDK_july20\tempsensor_v1\IAR\nlau_fism_1_aug\NLAU_FISM_SDK\tempsensor_v1\IAR\Fism\Obj\device_alarms.r43
  PROGRAM MODULE, NAME : device_alarms

  SEGMENTS IN THE MODULE
  ======================
<CODE> 1 (was CODE)
  Relative segment, address: 00010000 - 000100BF (0xc0 bytes), align: 1
  Segment part 17.
           ENTRY                   ADDRESS         REF BY
           =====                   =======         ======
           check_battery_alarm     00010000        events_health_check (events)
               calls direct
    -------------------------------------------------------------------------
<CODE> 1 (was CODE)
  Relative segment, address: 00012BFE - 00012C03 (0x6 bytes), align: 1
  Segment part 18.            Intra module refs:   check_battery_alarm
           LOCAL                   ADDRESS         
           =====                   =======         
           ?Subroutine0            00012BFE 
    -------------------------------------------------------------------------
<CODE> 1 (was CODE)
  Relative segment, address: 00012C04 - 00012C0B (0x8 bytes), align: 1
  Segment part 19.            Intra module refs:   ?Subroutine0
                                                   check_battery_alarm
    -------------------------------------------------------------------------
DATA16_I
  Relative segment, address: 21B1 - 21B1 (0x1 bytes), align: 0
  Segment part 15.            Intra module refs:   check_battery_alarm
           LOCAL                   ADDRESS         
           =====                   =======         
           check_battery_alarm::batt_health_check
                                   21B1 
    -------------------------------------------------------------------------
<CODE> 1 (was CODE)
  Relative segment, address: 00010620 - 000106BF (0xa0 bytes), align: 1
  Segment part 20.
           ENTRY                   ADDRESS         REF BY
           =====                   =======         ======
           check_sensor_alarm      00010620        events_health_check (events)
                                                   state_check_disconn_flags (state_machine)
               calls direct
    -------------------------------------------------------------------------
<CODE> 1 (was CODE)
  Relative segment, address: 00012D56 - 00012D61 (0xc bytes), align: 1
  Segment part 21.            Intra module refs:   check_sensor_alarm
           LOCAL                   ADDRESS         
           =====                   =======         
           ?Subroutine3            00012D56 
    -------------------------------------------------------------------------
<CODE> 1 (was CODE)
  Relative segment, address: 00012F1A - 00012F21 (0x8 bytes), align: 1
  Segment part 23.            Intra module refs:   alarm_packet
                                                   check_sensor_alarm
                                                   read_alarm_packets
           LOCAL                   ADDRESS         
           =====                   =======         
           ?Subroutine2            00012F1A 
    -------------------------------------------------------------------------
<CODE> 1 (was CODE)
  Relative segment, address: 000129A0 - 000129AF (0x10 bytes), align: 1
  Segment part 24.            Intra module refs:   alarm_packet
                                                   check_sensor_alarm
           LOCAL                   ADDRESS         
           =====                   =======         
           ?Subroutine1            000129A0 
    -------------------------------------------------------------------------
<CODE> 1 (was CODE)
  Relative segment, address: 00011D38 - 00011D6B (0x34 bytes), align: 1
  Segment part 22.
           ENTRY                   ADDRESS         REF BY
           =====                   =======         ======
           alarm_packet            00011D38        ?Subroutine27 (modem)
                                                   ota_process (ota)
               calls direct
    -------------------------------------------------------------------------
<CODE,LOW_MEM> 1 (was CODE)
  Relative segment, address: BB6E - BC5D (0xf0 bytes), align: 1
  Segment part 25.
           ENTRY                   ADDRESS         REF BY
           =====                   =======         ======
           read_alarm_packets      BB6E            events_health_check (events)
               calls direct
    -------------------------------------------------------------------------
<CODE> 1 (was CODE)
  Relative segment, address: 00012EA8 - 00012EB1 (0xa bytes), align: 1
  Segment part 26.            Intra module refs:   read_alarm_packets
           LOCAL                   ADDRESS         
           =====                   =======         
           ?Subroutine4            00012EA8 
    -------------------------------------------------------------------------
DATA16_ID
  Relative segment, address: 6A7D - 6A7D (0x1 bytes), align: 0
  Segment part 16.            Intra module refs:   check_battery_alarm::batt_health_check
    -------------------------------------------------------------------------
DATA16_C
  Relative segment, address: 5B14 - 5B22 (0xf bytes), align: 0
  Segment part 2.             Intra module refs:   check_battery_alarm
    -------------------------------------------------------------------------
DATA16_C
  Relative segment, address: 5B23 - 5B36 (0x14 bytes), align: 0
  Segment part 3.             Intra module refs:   check_battery_alarm
    -------------------------------------------------------------------------
DATA16_C
  Relative segment, address: 5B37 - 5B72 (0x3c bytes), align: 0
  Segment part 4.             Intra module refs:   check_battery_alarm
    -------------------------------------------------------------------------
DATA16_C
  Relative segment, address: 5B73 - 5B75 (0x3 bytes), align: 0
  Segment part 5.             Intra module refs:   check_sensor_alarm
    -------------------------------------------------------------------------
DATA16_C
  Relative segment, address: 5B76 - 5BB4 (0x3f bytes), align: 0
  Segment part 6.             Intra module refs:   check_sensor_alarm
    -------------------------------------------------------------------------
DATA16_C
  Relative segment, address: 5BB5 - 5BE3 (0x2f bytes), align: 0
  Segment part 7.             Intra module refs:   alarm_packet
    -------------------------------------------------------------------------
DATA16_C
  Relative segment, address: 5BE4 - 5C1B (0x38 bytes), align: 0
  Segment part 8.             Intra module refs:   read_alarm_packets
    -------------------------------------------------------------------------
DATA16_C
  Relative segment, address: 5C1C - 5C20 (0x5 bytes), align: 0
  Segment part 9.             Intra module refs:   read_alarm_packets
    -------------------------------------------------------------------------
DATA16_C
  Relative segment, address: 5C21 - 5C25 (0x5 bytes), align: 0
  Segment part 10.            Intra module refs:   read_alarm_packets
    -------------------------------------------------------------------------
DATA16_C
  Relative segment, address: 5C26 - 5C2A (0x5 bytes), align: 0
  Segment part 11.            Intra module refs:   read_alarm_packets
    -------------------------------------------------------------------------
DATA16_C
  Relative segment, address: 5C2B - 5C2F (0x5 bytes), align: 0
  Segment part 12.            Intra module refs:   read_alarm_packets
    -------------------------------------------------------------------------
DATA16_C
  Relative segment, address: 5C30 - 5C39 (0xa bytes), align: 0
  Segment part 13.            Intra module refs:   read_alarm_packets
    -------------------------------------------------------------------------
DATA16_C
  Relative segment, address: 5C3A - 5C4C (0x13 bytes), align: 0
  Segment part 14.            Intra module refs:   read_alarm_packets

    *************************************************************************

  FILE NAME : E:\NLAU_FISM_SDK_july20\tempsensor_v1\IAR\nlau_fism_1_aug\NLAU_FISM_SDK\tempsensor_v1\IAR\Fism\Obj\dma.r43
    *************************************************************************

  FILE NAME : E:\NLAU_FISM_SDK_july20\tempsensor_v1\IAR\nlau_fism_1_aug\NLAU_FISM_SDK\tempsensor_v1\IAR\Fism\Obj\encode.r43
  PROGRAM MODULE, NAME : encode

  SEGMENTS IN THE MODULE
  ======================
<CODE,LOW_MEM> 1 (was CODE)
  Relative segment, address: BE34 - BF1D (0xea bytes), align: 1
  Segment part 3.             Intra module refs:   encode_value
           ENTRY                   ADDRESS         REF BY
           =====                   =======         ======
           encode                  BE34 
               calls direct
    -------------------------------------------------------------------------
<CODE> 1 (was CODE)
  Relative segment, address: 00012D9E - 00012DA9 (0xc bytes), align: 1
  Segment part 4.             Intra module refs:   encode
           LOCAL                   ADDRESS         
           =====                   =======         
           ?Subroutine1            00012D9E 
    -------------------------------------------------------------------------
<CODE> 1 (was CODE)
  Relative segment, address: 00011B34 - 00011B3B (0x8 bytes), align: 1
  Segment part 6.             Intra module refs:   encode_value
           LOCAL                   ADDRESS         
           =====                   =======         
           ?Subroutine0            00011B34 
    -------------------------------------------------------------------------
<CODE> 1 (was CODE)
  Relative segment, address: 00011B3C - 00011B71 (0x36 bytes), align: 1
  Segment part 7.
           ENTRY                   ADDRESS         REF BY
           =====                   =======         ======
           encode_value            00011B3C        parse_input_value_for_sms (packet_format)
               calls direct
    -------------------------------------------------------------------------
<CODE> 1 (was CODE)
  Relative segment, address: 00012EE4 - 00012EED (0xa bytes), align: 1
  Segment part 8.             Intra module refs:   encode_value
           LOCAL                   ADDRESS         
           =====                   =======         
           ?Subroutine2            00012EE4 
    -------------------------------------------------------------------------
DATA16_C
  Relative segment, address: 5C4D - 5C8D (0x41 bytes), align: 0
  Segment part 2.             Intra module refs:   encode

    *************************************************************************

  FILE NAME : E:\NLAU_FISM_SDK_july20\tempsensor_v1\IAR\nlau_fism_1_aug\NLAU_FISM_SDK\tempsensor_v1\IAR\Fism\Obj\esi.r43
    *************************************************************************

  FILE NAME : E:\NLAU_FISM_SDK_july20\tempsensor_v1\IAR\nlau_fism_1_aug\NLAU_FISM_SDK\tempsensor_v1\IAR\Fism\Obj\eusci_a_spi.r43
    *************************************************************************

  FILE NAME : E:\NLAU_FISM_SDK_july20\tempsensor_v1\IAR\nlau_fism_1_aug\NLAU_FISM_SDK\tempsensor_v1\IAR\Fism\Obj\eusci_a_uart.r43
    *************************************************************************

  FILE NAME : E:\NLAU_FISM_SDK_july20\tempsensor_v1\IAR\nlau_fism_1_aug\NLAU_FISM_SDK\tempsensor_v1\IAR\Fism\Obj\eusci_b_i2c.r43
    *************************************************************************

  FILE NAME : E:\NLAU_FISM_SDK_july20\tempsensor_v1\IAR\nlau_fism_1_aug\NLAU_FISM_SDK\tempsensor_v1\IAR\Fism\Obj\eusci_b_spi.r43
    *************************************************************************

  FILE NAME : E:\NLAU_FISM_SDK_july20\tempsensor_v1\IAR\nlau_fism_1_aug\NLAU_FISM_SDK\tempsensor_v1\IAR\Fism\Obj\events.r43
  PROGRAM MODULE, NAME : events

  SEGMENTS IN THE MODULE
  ======================
XBIGDATA
  Relative segment, address: 4380 - 4475 (0xf6 bytes), align: 1
  Segment part 11.            Intra module refs:   ?Subroutine1
                                                   ?Subroutine4
                                                   events_find
                                                   events_find_next_event
                                                   events_init
                                                   events_register
                                                   events_sync
           ENTRY                   ADDRESS         REF BY
           =====                   =======         ======
           g_sEvents               4380            RTC_C_ISR (rtc)
    -------------------------------------------------------------------------
<CODE> 1 (was CODE)
  Relative segment, address: 0001241A - 00012435 (0x1c bytes), align: 1
  Segment part 20.            Intra module refs:   event_setInterval_by_id_secs
           ENTRY                   ADDRESS         REF BY
           =====                   =======         ======
           event_getInterval_by_id_secs
                                   0001241A 
               calls direct
    -------------------------------------------------------------------------
<CODE> 1 (was CODE)
  Relative segment, address: 00012100 - 00012125 (0x26 bytes), align: 1
  Segment part 21.
           ENTRY                   ADDRESS         REF BY
           =====                   =======         ======
           event_setInterval_by_id_secs
                                   00012100        ?Subroutine3 (config)
                                                   ?Subroutine4 (config)
                                                   setvalue (config)
               calls direct
    -------------------------------------------------------------------------
<CODE> 1 (was CODE)
  Relative segment, address: 00012B80 - 00012B8D (0xe bytes), align: 1
  Segment part 37.            Intra module refs:   event_force_event_by_id
                                                   event_setInterval_by_id_secs
           LOCAL                   ADDRESS         
           =====                   =======         
           ?Subroutine2            00012B80 
    -------------------------------------------------------------------------
<CODE> 1 (was CODE)
  Relative segment, address: 000114FA - 0001154F (0x56 bytes), align: 1
  Segment part 24.            Intra module refs:   ?Subroutine0
                                                   event_force_event_by_id
           ENTRY                   ADDRESS         REF BY
           =====                   =======         ======
           events_find_next_event
                                   000114FA 
    -------------------------------------------------------------------------
<CODE> 1 (was CODE)
  Relative segment, address: 00010AAE - 00010B35 (0x88 bytes), align: 1
  Segment part 26.            Intra module refs:   events_init
           ENTRY                   ADDRESS         REF BY
           =====                   =======         ======
           events_register         00010AAE 
               calls direct
    -------------------------------------------------------------------------
<CODE> 1 (was CODE)
  Relative segment, address: 00012B8E - 00012B9B (0xe bytes), align: 1
  Segment part 51.            Intra module refs:   ?Subroutine1
                                                   events_register
           LOCAL                   ADDRESS         
           =====                   =======         
           ?Subroutine4            00012B8E 
    -------------------------------------------------------------------------
<CODE> 1 (was CODE)
  Relative segment, address: 00011F50 - 00011F7D (0x2e bytes), align: 1
  Segment part 25.            Intra module refs:   events_register
                                                   events_sync
           ENTRY                   ADDRESS         REF BY
           =====                   =======         ======
           event_init              00011F50 
    -------------------------------------------------------------------------
<CODE> 1 (was CODE)
  Relative segment, address: 0001113E - 000111A3 (0x66 bytes), align: 1
  Segment part 27.            Intra module refs:   event_run_now
           ENTRY                   ADDRESS         REF BY
           =====                   =======         ======
           event_next              0001113E 
               calls direct
    -------------------------------------------------------------------------
<CODE> 1 (was CODE)
  Relative segment, address: 000112D2 - 000112FB (0x2a bytes), align: 1
  Segment part 30.            Intra module refs:   events_init
           ENTRY                   ADDRESS         REF BY
           =====                   =======         ======
           events_sync             000112D2 
               calls direct
    -------------------------------------------------------------------------
<CODE> 1 (was CODE)
  Relative segment, address: 000112FC - 00011303 (0x8 bytes), align: 1
  Segment part 31.            Intra module refs:   event_run_now
                                                   events_sync
           LOCAL                   ADDRESS         
           =====                   =======         
           ?Subroutine0            000112FC 
    -------------------------------------------------------------------------
<CODE> 1 (was CODE)
  Relative segment, address: 00011304 - 0001130D (0xa bytes), align: 1
  Segment part 32.            Intra module refs:   event_run_now
                                                   events_sync
           LOCAL                   ADDRESS         
           =====                   =======         
           ?Subroutine3            00011304 
    -------------------------------------------------------------------------
<CODE> 1 (was CODE)
  Relative segment, address: 0001130E - 00011331 (0x24 bytes), align: 1
  Segment part 34.            Intra module refs:   events_run
           ENTRY                   ADDRESS         REF BY
           =====                   =======         ======
           event_run_now           0001130E 
               calls direct and indirect
    -------------------------------------------------------------------------
<CODE> 1 (was CODE)
  Relative segment, address: 0001227A - 00012299 (0x20 bytes), align: 1
  Segment part 36.            Intra module refs:   event_force_upload
                                                   events_health_check
           ENTRY                   ADDRESS         REF BY
           =====                   =======         ======
           event_force_event_by_id
                                   0001227A        ?Subroutine2 (debug)
                                                   ?Subroutine5 (sms)
                                                   ADC12_ISR (temperature)
                                                   dev_sms_cofig (sms)
                                                   parse_diag_command (debug)
                                                   send_data_to_server (packet_format)
               calls direct
    -------------------------------------------------------------------------
<CODE> 1 (was CODE)
  Relative segment, address: 00012008 - 00012033 (0x2c bytes), align: 1
  Segment part 38.
           ENTRY                   ADDRESS         REF BY
           =====                   =======         ======
           events_run              00012008        main (main_system)
               calls direct
    -------------------------------------------------------------------------
<CODE> 1 (was CODE)
  Relative segment, address: 00012CA2 - 00012CAD (0xc bytes), align: 1
  Segment part 50.            Intra module refs:   events_run
           LOCAL                   ADDRESS         
           =====                   =======         
           ?Subroutine1            00012CA2 
    -------------------------------------------------------------------------
<CODE> 1 (was CODE)
  Relative segment, address: 00012C96 - 00012CA1 (0xc bytes), align: 1
  Segment part 39.            Intra module refs:   Segment part 16
           ENTRY                   ADDRESS         REF BY
           =====                   =======         ======
           event_SIM_check_incoming_msgs
                                   00012C96 
               calls direct
    -------------------------------------------------------------------------
<CODE> 1 (was CODE)
  Relative segment, address: 00012B00 - 00012B0F (0x10 bytes), align: 1
  Segment part 42.            Intra module refs:   Segment part 16
           ENTRY                   ADDRESS         REF BY
           =====                   =======         ======
           event_subsample_temperature
                                   00012B00 
               calls direct
    -------------------------------------------------------------------------
DATA16_C
  Relative segment, address: 5C8E - 5C9E (0x11 bytes), align: 0
  Segment part 6.             Intra module refs:   event_upload_samples
    -------------------------------------------------------------------------
DATA16_C
  Relative segment, address: 5C9F - 5CA9 (0xb bytes), align: 0
  Segment part 7.             Intra module refs:   event_upload_samples
    -------------------------------------------------------------------------
DATA16_C
  Relative segment, address: 5CAA - 5CB1 (0x8 bytes), align: 0
  Segment part 8.             Intra module refs:   event_upload_samples
    -------------------------------------------------------------------------
DATA16_C
  Relative segment, address: 5CB2 - 5CC8 (0x17 bytes), align: 0
  Segment part 9.             Intra module refs:   events_health_check
    -------------------------------------------------------------------------
DATA16_C
  Relative segment, address: 5CC9 - 5CE3 (0x1b bytes), align: 0
  Segment part 10.            Intra module refs:   event_reboot_system
    -------------------------------------------------------------------------
<CODE> 1 (was CODE)
  Relative segment, address: 0001164A - 0001169B (0x52 bytes), align: 1
  Segment part 43.            Intra module refs:   Segment part 16
           ENTRY                   ADDRESS         REF BY
           =====                   =======         ======
           event_upload_samples    0001164A 
               calls direct
    -------------------------------------------------------------------------
<CODE> 1 (was CODE)
  Relative segment, address: 00012D3E - 00012D49 (0xc bytes), align: 1
  Segment part 44.
           ENTRY                   ADDRESS         REF BY
           =====                   =======         ======
           event_force_upload      00012D3E        parse_diag_command (debug)
               calls direct
    -------------------------------------------------------------------------
DATA16_Z
  Relative segment, address: 253A - 253A (0x1 bytes), align: 0
  Segment part 14.            Intra module refs:   events_find
                                                   events_init
           ENTRY                   ADDRESS         REF BY
           =====                   =======         ======
           g_fEventQueueInitialized
                                   253A 
    -------------------------------------------------------------------------
<CODE> 1 (was CODE)
  Relative segment, address: 00011FDA - 00012007 (0x2e bytes), align: 1
  Segment part 19.            Intra module refs:   ?Subroutine2
                                                   event_getInterval_by_id_secs
           ENTRY                   ADDRESS         REF BY
           =====                   =======         ======
           events_find             00011FDA 
    -------------------------------------------------------------------------
<CODE> 1 (was CODE)
  Relative segment, address: 0001106A - 000110D5 (0x6c bytes), align: 1
  Segment part 47.            Intra module refs:   Segment part 16
           ENTRY                   ADDRESS         REF BY
           =====                   =======         ======
           events_health_check     0001106A 
               calls direct
    -------------------------------------------------------------------------
<CODE> 1 (was CODE)
  Relative segment, address: 00012D02 - 00012D0D (0xc bytes), align: 1
  Segment part 48.            Intra module refs:   Segment part 16
           ENTRY                   ADDRESS         REF BY
           =====                   =======         ======
           event_reboot_system     00012D02 
               calls direct
    -------------------------------------------------------------------------
DATA16_Z
  Relative segment, address: 253B - 253B (0x1 bytes), align: 0
  Segment part 15.
           ENTRY                   ADDRESS         REF BY
           =====                   =======         ======
           iMainSleep              253B            ADC12_ISR (temperature)
                                                   RTC_C_ISR (rtc)
    -------------------------------------------------------------------------
<CODE,LOW_MEM> 1 (was CODE)
  Relative segment, address: B004 - B13D (0x13a bytes), align: 1
  Segment part 53.
           ENTRY                   ADDRESS         REF BY
           =====                   =======         ======
           events_init             B004            main (main_system)
               calls direct
    -------------------------------------------------------------------------
DATA16_C
  Relative segment, address: 5CE4 - 5D51 (0x6e bytes), align: 0
  Segment part 16.            Intra module refs:   events_init

    *************************************************************************

  FILE NAME : E:\NLAU_FISM_SDK_july20\tempsensor_v1\IAR\nlau_fism_1_aug\NLAU_FISM_SDK\tempsensor_v1\IAR\Fism\Obj\fatdata.r43
  PROGRAM MODULE, NAME : fatdata

  SEGMENTS IN THE MODULE
  ======================
DATA16_AN
  Relative segment, address: 0220 - 0221 (0x2 bytes), align: 0
  Segment part 1. ROOT        Intra module refs:   gsm_exit_sleep (modem)
           ENTRY                   ADDRESS         REF BY
           =====                   =======         ======
           _A_PBIN_L               0220 
           LOCAL                   ADDRESS         
           =====                   =======         
           PBIN                    0220 
           PBIN_H                  0221 
           PBIN_L                  0220 

    *************************************************************************

  FILE NAME : E:\NLAU_FISM_SDK_july20\tempsensor_v1\IAR\nlau_fism_1_aug\NLAU_FISM_SDK\tempsensor_v1\IAR\Fism\Obj\FatFs_Lib.r43
    *************************************************************************

  FILE NAME : E:\NLAU_FISM_SDK_july20\tempsensor_v1\IAR\nlau_fism_1_aug\NLAU_FISM_SDK\tempsensor_v1\IAR\Fism\Obj\file_system.r43
  PROGRAM MODULE, NAME : file_system

  SEGMENTS IN THE MODULE
  ======================
<CODE> 1 (was CODE)
  Relative segment, address: 0001216E - 00012191 (0x24 bytes), align: 1
  Segment part 13.
           ENTRY                   ADDRESS         REF BY
           =====                   =======         ======
           file_system             0001216E        gsm_init (modem)
               calls direct
    -------------------------------------------------------------------------
<CODE> 1 (was CODE)
  Relative segment, address: 0001178C - 000117D9 (0x4e bytes), align: 1
  Segment part 16.
           ENTRY                   ADDRESS         REF BY
           =====                   =======         ======
           read_apn_config         0001178C        read_apn (apn_config)
               calls direct
    -------------------------------------------------------------------------
<CODE> 1 (was CODE)
  Relative segment, address: 00012CF6 - 00012D01 (0xc bytes), align: 1
  Segment part 18.            Intra module refs:   read_apn_config
                                                   read_file_size
           LOCAL                   ADDRESS         
           =====                   =======         
           ?Subroutine2            00012CF6 
    -------------------------------------------------------------------------
<CODE> 1 (was CODE)
  Relative segment, address: 00010BBC - 00010C3B (0x80 bytes), align: 1
  Segment part 17.
           ENTRY                   ADDRESS         REF BY
           =====                   =======         ======
           read_file_size          00010BBC        read_apn (apn_config)
               calls direct
    -------------------------------------------------------------------------
<CODE> 1 (was CODE)
  Relative segment, address: 00012D7A - 00012D85 (0xc bytes), align: 1
  Segment part 19.            Intra module refs:   read_file_size
           LOCAL                   ADDRESS         
           =====                   =======         
           ?Subroutine1            00012D7A 
    -------------------------------------------------------------------------
DATA16_C
  Relative segment, address: 5D52 - 5D60 (0xf bytes), align: 0
  Segment part 2.             Intra module refs:   file_system
    -------------------------------------------------------------------------
DATA16_C
  Relative segment, address: 5D61 - 5D65 (0x5 bytes), align: 0
  Segment part 3.             Intra module refs:   file_system
                                                   read_apn_config
    -------------------------------------------------------------------------
DATA16_C
  Relative segment, address: 5D66 - 5D75 (0x10 bytes), align: 0
  Segment part 4.             Intra module refs:   file_system
    -------------------------------------------------------------------------
DATA16_C
  Relative segment, address: 5D76 - 5D90 (0x1b bytes), align: 0
  Segment part 9.             Intra module refs:   read_apn_config
    -------------------------------------------------------------------------
DATA16_C
  Relative segment, address: 5D91 - 5D93 (0x3 bytes), align: 0
  Segment part 10.            Intra module refs:   read_apn_config
    -------------------------------------------------------------------------
DATA16_C
  Relative segment, address: 5D94 - 5DA8 (0x15 bytes), align: 0
  Segment part 11.            Intra module refs:   read_file_size
    -------------------------------------------------------------------------
DATA16_C
  Relative segment, address: 5DA9 - 5DB3 (0xb bytes), align: 0
  Segment part 12.            Intra module refs:   read_file_size

    *************************************************************************

  FILE NAME : E:\NLAU_FISM_SDK_july20\tempsensor_v1\IAR\nlau_fism_1_aug\NLAU_FISM_SDK\tempsensor_v1\IAR\Fism\Obj\framctl.r43
    *************************************************************************

  FILE NAME : E:\NLAU_FISM_SDK_july20\tempsensor_v1\IAR\nlau_fism_1_aug\NLAU_FISM_SDK\tempsensor_v1\IAR\Fism\Obj\fridge_data.r43
  PROGRAM MODULE, NAME : fridge_data

  SEGMENTS IN THE MODULE
  ======================
<CODE> 1 (was CODE)
  Relative segment, address: 0001017E - 0001022F (0xb2 bytes), align: 1
  Segment part 18.            Intra module refs:   check_data_crc
           ENTRY                   ADDRESS         REF BY
           =====                   =======         ======
           ack_to_fridge           0001017E 
               calls direct
    -------------------------------------------------------------------------
<CODE> 1 (was CODE)
  Relative segment, address: 00012FC6 - 00012FCB (0x6 bytes), align: 1
  Segment part 21.            Intra module refs:   ack_to_fridge
                                                   check_data_crc
                                                   fridge_sampled_data
           LOCAL                   ADDRESS         
           =====                   =======         
           ?Subroutine1            00012FC6 
    -------------------------------------------------------------------------
<CODE> 1 (was CODE)
  Relative segment, address: 00012888 - 00012899 (0x12 bytes), align: 1
  Segment part 22.            Intra module refs:   ack_to_fridge
                                                   check_data_crc
           LOCAL                   ADDRESS         
           =====                   =======         
           ?Subroutine0            00012888 
    -------------------------------------------------------------------------
<CODE,LOW_MEM> 1 (was CODE)
  Relative segment, address: 9DD0 - 9F6B (0x19c bytes), align: 1
  Segment part 19.
           ENTRY                   ADDRESS         REF BY
           =====                   =======         ======
           check_data_crc          9DD0            USCI_A1_ISR (fridge_uart)
               calls direct
    -------------------------------------------------------------------------
<CODE> 1 (was CODE)
  Relative segment, address: 00012A40 - 00012A4F (0x10 bytes), align: 1
  Segment part 20.            Intra module refs:   check_data_crc
           LOCAL                   ADDRESS         
           =====                   =======         
           ?Subroutine3            00012A40 
    -------------------------------------------------------------------------
DATA16_Z
  Relative segment, address: 253C - 2540 (0x5 bytes), align: 0
  Segment part 17.            Intra module refs:   check_data_crc
           LOCAL                   ADDRESS         
           =====                   =======         
           check_data_crc::crc     253C 
    -------------------------------------------------------------------------
<CODE,LOW_MEM> 1 (was CODE)
  Relative segment, address: AC40 - AD83 (0x144 bytes), align: 1
  Segment part 23.
           ENTRY                   ADDRESS         REF BY
           =====                   =======         ======
           fridge_sampled_data     AC40            upload_packet_sms (modem)
               calls direct
    -------------------------------------------------------------------------
<CODE> 1 (was CODE)
  Relative segment, address: 00012E08 - 00012E11 (0xa bytes), align: 1
  Segment part 24.            Intra module refs:   fridge_sampled_data
           LOCAL                   ADDRESS         
           =====                   =======         
           ?Subroutine4            00012E08 
    -------------------------------------------------------------------------
<CODE> 1 (was CODE)
  Relative segment, address: 000127B0 - 000127C1 (0x12 bytes), align: 1
  Segment part 25.            Intra module refs:   fridge_sampled_data
           LOCAL                   ADDRESS         
           =====                   =======         
           ?Subroutine2            000127B0 
    -------------------------------------------------------------------------
DATA16_C
  Relative segment, address: 5DB4 - 5DB7 (0x4 bytes), align: 0
  Segment part 2.             Intra module refs:   ack_to_fridge
    -------------------------------------------------------------------------
DATA16_C
  Relative segment, address: 5DB8 - 5DCC (0x15 bytes), align: 0
  Segment part 3.             Intra module refs:   ack_to_fridge
    -------------------------------------------------------------------------
DATA16_C
  Relative segment, address: 5DCD - 5DD0 (0x4 bytes), align: 0
  Segment part 4.             Intra module refs:   ack_to_fridge
    -------------------------------------------------------------------------
DATA16_C
  Relative segment, address: 5DD1 - 5DD3 (0x3 bytes), align: 0
  Segment part 5.             Intra module refs:   ack_to_fridge
                                                   check_data_crc
    -------------------------------------------------------------------------
DATA16_C
  Relative segment, address: 5DD4 - 5DD7 (0x4 bytes), align: 0
  Segment part 6.             Intra module refs:   check_data_crc
    -------------------------------------------------------------------------
DATA16_C
  Relative segment, address: 5DD8 - 5DE5 (0xe bytes), align: 0
  Segment part 8.             Intra module refs:   check_data_crc
    -------------------------------------------------------------------------
DATA16_C
  Relative segment, address: 5DE6 - 5DE7 (0x2 bytes), align: 0
  Segment part 9.             Intra module refs:   check_data_crc
    -------------------------------------------------------------------------
DATA16_C
  Relative segment, address: 5DE8 - 5DF4 (0xd bytes), align: 0
  Segment part 10.            Intra module refs:   check_data_crc
    -------------------------------------------------------------------------
DATA16_C
  Relative segment, address: 5DF5 - 5E1E (0x2a bytes), align: 0
  Segment part 11.            Intra module refs:   check_data_crc
    -------------------------------------------------------------------------
DATA16_C
  Relative segment, address: 5E1F - 5E24 (0x6 bytes), align: 0
  Segment part 12.            Intra module refs:   check_data_crc
    -------------------------------------------------------------------------
DATA16_C
  Relative segment, address: 5E25 - 5E2B (0x7 bytes), align: 0
  Segment part 13.            Intra module refs:   check_data_crc
    -------------------------------------------------------------------------
DATA16_C
  Relative segment, address: 5E2C - 5E47 (0x1c bytes), align: 0
  Segment part 14.            Intra module refs:   check_data_crc
    -------------------------------------------------------------------------
DATA16_C
  Relative segment, address: 5E48 - 5E7C (0x35 bytes), align: 0
  Segment part 15.            Intra module refs:   fridge_sampled_data
    -------------------------------------------------------------------------
DATA16_C
  Relative segment, address: 5E7D - 5E81 (0x5 bytes), align: 0
  Segment part 16.            Intra module refs:   fridge_sampled_data

    *************************************************************************

  FILE NAME : E:\NLAU_FISM_SDK_july20\tempsensor_v1\IAR\nlau_fism_1_aug\NLAU_FISM_SDK\tempsensor_v1\IAR\Fism\Obj\fridge_uart.r43
  PROGRAM MODULE, NAME : fridge_uart

  SEGMENTS IN THE MODULE
  ======================
DATA16_AN
  Relative segment, address: 05E0 - 05E1 (0x2 bytes), align: 0
  Segment part 1. ROOT        Intra module refs:   Extrn_UART_init
           ENTRY                   ADDRESS         REF BY
           =====                   =======         ======
           _A_UCA1CTLW0_L          05E0 
           LOCAL                   ADDRESS         
           =====                   =======         
           UCA1CTLW0               05E0 
           UCA1CTLW0_H             05E1 
           UCA1CTLW0_L             05E0 
    -------------------------------------------------------------------------
DATA16_AN
  Relative segment, address: 05E6 - 05E7 (0x2 bytes), align: 0
  Segment part 2. ROOT        Intra module refs:   Extrn_UART_init
           ENTRY                   ADDRESS         REF BY
           =====                   =======         ======
           _A_UCA1BRW_L            05E6 
           LOCAL                   ADDRESS         
           =====                   =======         
           UCA1BRW                 05E6 
           UCA1BRW_H               05E7 
           UCA1BRW_L               05E6 
    -------------------------------------------------------------------------
DATA16_AN
  Relative segment, address: 05E8 - 05E9 (0x2 bytes), align: 0
  Segment part 3. ROOT        Intra module refs:   Extrn_UART_init
           ENTRY                   ADDRESS         REF BY
           =====                   =======         ======
           _A_UCA1MCTLW_L          05E8 
           LOCAL                   ADDRESS         
           =====                   =======         
           UCA1MCTLW               05E8 
           UCA1MCTLW_H             05E9 
           UCA1MCTLW_L             05E8 
    -------------------------------------------------------------------------
DATA16_AN
  Relative segment, address: 05EA - 05EB (0x2 bytes), align: 0
  Segment part 4. ROOT        Intra module refs:   ext_uart_tx
           ENTRY                   ADDRESS         REF BY
           =====                   =======         ======
           _A_UCA1STATW_L          05EA 
           LOCAL                   ADDRESS         
           =====                   =======         
           UCA1STATW               05EA 
           UCA1STATW_H             05EB 
           UCA1STATW_L             05EA 
    -------------------------------------------------------------------------
DATA16_AN
  Relative segment, address: 05EC - 05ED (0x2 bytes), align: 0
  Segment part 5. ROOT        Intra module refs:   USCI_A1_ISR
           ENTRY                   ADDRESS         REF BY
           =====                   =======         ======
           _A_UCA1RXBUF_L          05EC 
           LOCAL                   ADDRESS         
           =====                   =======         
           UCA1RXBUF               05EC 
           UCA1RXBUF_H             05ED 
           UCA1RXBUF_L             05EC 
    -------------------------------------------------------------------------
DATA16_AN
  Relative segment, address: 05EE - 05EF (0x2 bytes), align: 0
  Segment part 6. ROOT        Intra module refs:   ext_uart_tx
           ENTRY                   ADDRESS         REF BY
           =====                   =======         ======
           _A_UCA1TXBUF_L          05EE 
           LOCAL                   ADDRESS         
           =====                   =======         
           UCA1TXBUF               05EE 
           UCA1TXBUF_H             05EF 
           UCA1TXBUF_L             05EE 
    -------------------------------------------------------------------------
DATA16_AN
  Relative segment, address: 05FA - 05FB (0x2 bytes), align: 0
  Segment part 7. ROOT        Intra module refs:   Extrn_UART_init
           ENTRY                   ADDRESS         REF BY
           =====                   =======         ======
           _A_UCA1IE_L             05FA 
           LOCAL                   ADDRESS         
           =====                   =======         
           UCA1IE                  05FA 
           UCA1IE_H                05FB 
           UCA1IE_L                05FA 
    -------------------------------------------------------------------------
DATA16_AN
  Relative segment, address: 05FE - 05FF (0x2 bytes), align: 0
  Segment part 8. ROOT        Intra module refs:   USCI_A1_ISR
           ENTRY                   ADDRESS         REF BY
           =====                   =======         ======
           _A_UCA1IV_L             05FE 
           LOCAL                   ADDRESS         
           =====                   =======         
           UCA1IV                  05FE 
           UCA1IV_H                05FF 
           UCA1IV_L                05FE 
    -------------------------------------------------------------------------
DATA16_Z
  Relative segment, address: 2541 - 2740 (0x200 bytes), align: 0
  Segment part 10.            Intra module refs:   USCI_A1_ISR
           ENTRY                   ADDRESS         REF BY
           =====                   =======         ======
           fridge_buffer           2541            check_data_crc (fridge_data)
    -------------------------------------------------------------------------
DATA16_Z
  Relative segment, address: 21EA - 21EB (0x2 bytes), align: 1
  Segment part 11.            Intra module refs:   USCI_A1_ISR
           ENTRY                   ADDRESS         REF BY
           =====                   =======         ======
           fridge_index            21EA 
    -------------------------------------------------------------------------
<CODE> 1 (was CODE)
  Relative segment, address: 00011B72 - 00011B77 (0x6 bytes), align: 1
  Segment part 13.            Intra module refs:   Extrn_UART_init
           LOCAL                   ADDRESS         
           =====                   =======         
           ?Subroutine0            00011B72 
    -------------------------------------------------------------------------
<CODE> 1 (was CODE)
  Relative segment, address: 00011B78 - 00011B93 (0x1c bytes), align: 1
  Segment part 15.
           ENTRY                   ADDRESS         REF BY
           =====                   =======         ======
           ext_uart_tx             00011B78        ack_to_fridge (fridge_data)
    -------------------------------------------------------------------------
<CODE> 1 (was CODE)
  Relative segment, address: 00011B94 - 00011BAF (0x1c bytes), align: 1
  Segment part 16.
           ENTRY                   ADDRESS         REF BY
           =====                   =======         ======
           Extrn_UART_init         00011B94        main (main_system)
    -------------------------------------------------------------------------
ISR_CODE
  Relative segment, address: 6B16 - 6B7D (0x68 bytes), align: 1
  Segment part 17.
           ENTRY                   ADDRESS         REF BY
           =====                   =======         ======
           USCI_A1_ISR             6B16            main (main_system)
               interrupt function
               calls direct

    *************************************************************************

  FILE NAME : E:\NLAU_FISM_SDK_july20\tempsensor_v1\IAR\nlau_fism_1_aug\NLAU_FISM_SDK\tempsensor_v1\IAR\Fism\Obj\globals.r43
  PROGRAM MODULE, NAME : globals

  SEGMENTS IN THE MODULE
  ======================
DATA16_C
  Relative segment, address: 5E82 - 5E89 (0x8 bytes), align: 0
  Segment part 2.
           ENTRY                   ADDRESS         REF BY
           =====                   =======         ======
           SensorName              5E82            alarm_sms (alarms)
    -------------------------------------------------------------------------
DATA16_Z
  Relative segment, address: 21EC - 21FD (0x12 bytes), align: 1
  Segment part 5.
           ENTRY                   ADDRESS         REF BY
           =====                   =======         ======
           g_tmCurrTime            21EC            rtc_update_time (rtc)

    *************************************************************************

  FILE NAME : E:\NLAU_FISM_SDK_july20\tempsensor_v1\IAR\nlau_fism_1_aug\NLAU_FISM_SDK\tempsensor_v1\IAR\Fism\Obj\gpio.r43
    *************************************************************************

  FILE NAME : E:\NLAU_FISM_SDK_july20\tempsensor_v1\IAR\nlau_fism_1_aug\NLAU_FISM_SDK\tempsensor_v1\IAR\Fism\Obj\hardware_buttons.r43
  PROGRAM MODULE, NAME : hardware_buttons

  SEGMENTS IN THE MODULE
  ======================
DATA16_AN
  Relative segment, address: 0200 - 0201 (0x2 bytes), align: 0
  Segment part 1. ROOT 
           ENTRY                   ADDRESS         REF BY
           =====                   =======         ======
           _A_PAIN_L               0200 
           LOCAL                   ADDRESS         
           =====                   =======         
           PAIN                    0200 
           PAIN_H                  0201 
           PAIN_L                  0200 
    -------------------------------------------------------------------------
DATA16_AN
  Relative segment, address: 021A - 021B (0x2 bytes), align: 0
  Segment part 2. ROOT 
           ENTRY                   ADDRESS         REF BY
           =====                   =======         ======
           _A_PAIE_L               021A 
           LOCAL                   ADDRESS         
           =====                   =======         
           PAIE                    021A 
           PAIE_H                  021B 
           PAIE_L                  021A 
    -------------------------------------------------------------------------
DATA16_AN
  Relative segment, address: 021E - 021F (0x2 bytes), align: 0
  Segment part 3. ROOT 
           ENTRY                   ADDRESS         REF BY
           =====                   =======         ======
           _A_P2IV_L               021E 
           LOCAL                   ADDRESS         
           =====                   =======         
           P2IV                    021E 
           P2IV_H                  021F 
           P2IV_L                  021E 
    -------------------------------------------------------------------------
DATA16_AN
  Relative segment, address: 022E - 022F (0x2 bytes), align: 0
  Segment part 5. ROOT 
           ENTRY                   ADDRESS         REF BY
           =====                   =======         ======
           _A_P3IV_L               022E 
           LOCAL                   ADDRESS         
           =====                   =======         
           P3IV                    022E 
           P3IV_H                  022F 
           P3IV_L                  022E 
    -------------------------------------------------------------------------
DATA16_AN
  Relative segment, address: 023A - 023B (0x2 bytes), align: 0
  Segment part 6. ROOT 
           ENTRY                   ADDRESS         REF BY
           =====                   =======         ======
           _A_PBIE_L               023A 
           LOCAL                   ADDRESS         
           =====                   =======         
           PBIE                    023A 
           PBIE_H                  023B 
           PBIE_L                  023A 
    -------------------------------------------------------------------------
DATA16_AN
  Relative segment, address: 023E - 023F (0x2 bytes), align: 0
  Segment part 7. ROOT 
           ENTRY                   ADDRESS         REF BY
           =====                   =======         ======
           _A_P4IV_L               023E 
           LOCAL                   ADDRESS         
           =====                   =======         
           P4IV                    023E 
           P4IV_H                  023F 
           P4IV_L                  023E 

    *************************************************************************

  FILE NAME : E:\NLAU_FISM_SDK_july20\tempsensor_v1\IAR\nlau_fism_1_aug\NLAU_FISM_SDK\tempsensor_v1\IAR\Fism\Obj\http.r43
    *************************************************************************

  FILE NAME : E:\NLAU_FISM_SDK_july20\tempsensor_v1\IAR\nlau_fism_1_aug\NLAU_FISM_SDK\tempsensor_v1\IAR\Fism\Obj\i2c.r43
  PROGRAM MODULE, NAME : i2c

  SEGMENTS IN THE MODULE
  ======================
<CODE> 1 (was CODE)
  Relative segment, address: 00012FDC - 00012FDF (0x4 bytes), align: 1
  Segment part 6.
           ENTRY                   ADDRESS         REF BY
           =====                   =======         ======
           i2c_read                00012FDC        ?Subroutine0 (battery)
                                                   i2c_temperature (temperature)
               calls indirect

    *************************************************************************

  FILE NAME : E:\NLAU_FISM_SDK_july20\tempsensor_v1\IAR\nlau_fism_1_aug\NLAU_FISM_SDK\tempsensor_v1\IAR\Fism\Obj\json.r43
    *************************************************************************

  FILE NAME : E:\NLAU_FISM_SDK_july20\tempsensor_v1\IAR\nlau_fism_1_aug\NLAU_FISM_SDK\tempsensor_v1\IAR\Fism\Obj\jsonAPIs.r43
    *************************************************************************

  FILE NAME : E:\NLAU_FISM_SDK_july20\tempsensor_v1\IAR\nlau_fism_1_aug\NLAU_FISM_SDK\tempsensor_v1\IAR\Fism\Obj\lcd.r43
    *************************************************************************

  FILE NAME : E:\NLAU_FISM_SDK_july20\tempsensor_v1\IAR\nlau_fism_1_aug\NLAU_FISM_SDK\tempsensor_v1\IAR\Fism\Obj\lcd_c.r43
    *************************************************************************

  FILE NAME : E:\NLAU_FISM_SDK_july20\tempsensor_v1\IAR\nlau_fism_1_aug\NLAU_FISM_SDK\tempsensor_v1\IAR\Fism\Obj\main_system.r43
  PROGRAM MODULE, NAME : main_system

  SEGMENTS IN THE MODULE
  ======================
DATA16_AN
  Relative segment, address: 020A - 020B (0x2 bytes), align: 0
  Segment part 1. ROOT        Intra module refs:   SPI_Init (spi_flash)
                                                   setup_IO
                                                   uart_setupIO (modem_uart)
           ENTRY                   ADDRESS         REF BY
           =====                   =======         ======
           _A_PASEL0_L             020A 
           LOCAL                   ADDRESS         
           =====                   =======         
           PASEL0                  020A 
           PASEL0_H                020B 
           PASEL0_L                020A 
    -------------------------------------------------------------------------
DATA16_AN
  Relative segment, address: 020C - 020D (0x2 bytes), align: 0
  Segment part 2. ROOT        Intra module refs:   SPI_Init (spi_flash)
                                                   setup_IO
                                                   uart_setupIO (modem_uart)
           ENTRY                   ADDRESS         REF BY
           =====                   =======         ======
           _A_PASEL1_L             020C 
           LOCAL                   ADDRESS         
           =====                   =======         
           PASEL1                  020C 
           PASEL1_H                020D 
           PASEL1_L                020C 
    -------------------------------------------------------------------------
DATA16_AN
  Relative segment, address: 0224 - 0225 (0x2 bytes), align: 0
  Segment part 4. ROOT        Intra module refs:   setup_IO
                                                   uart_setupIO (modem_uart)
           ENTRY                   ADDRESS         REF BY
           =====                   =======         ======
           _A_PBDIR_L              0224 
           LOCAL                   ADDRESS         
           =====                   =======         
           PBDIR                   0224 
           PBDIR_H                 0225 
           PBDIR_L                 0224 
    -------------------------------------------------------------------------
DATA16_AN
  Relative segment, address: 022A - 022B (0x2 bytes), align: 0
  Segment part 5. ROOT        Intra module refs:   setup_IO
           ENTRY                   ADDRESS         REF BY
           =====                   =======         ======
           _A_PBSEL0_L             022A 
           LOCAL                   ADDRESS         
           =====                   =======         
           PBSEL0                  022A 
           PBSEL0_H                022B 
           PBSEL0_L                022A 
    -------------------------------------------------------------------------
DATA16_AN
  Relative segment, address: 022C - 022D (0x2 bytes), align: 0
  Segment part 6. ROOT        Intra module refs:   setup_IO
           ENTRY                   ADDRESS         REF BY
           =====                   =======         ======
           _A_PBSEL1_L             022C 
           LOCAL                   ADDRESS         
           =====                   =======         
           PBSEL1                  022C 
           PBSEL1_H                022D 
           PBSEL1_L                022C 
    -------------------------------------------------------------------------
DATA16_AN
  Relative segment, address: 0240 - 0241 (0x2 bytes), align: 0
  Segment part 7. ROOT        Intra module refs:   gsm_init (modem)
                                                   main
           ENTRY                   ADDRESS         REF BY
           =====                   =======         ======
           _A_PCIN_L               0240 
           LOCAL                   ADDRESS         
           =====                   =======         
           PCIN                    0240 
           PCIN_H                  0241 
           PCIN_L                  0240 
    -------------------------------------------------------------------------
DATA16_AN
  Relative segment, address: 0244 - 0245 (0x2 bytes), align: 0
  Segment part 8. ROOT        Intra module refs:   setup_IO
                                                   uart_setupIO (modem_uart)
           ENTRY                   ADDRESS         REF BY
           =====                   =======         ======
           _A_PCDIR_L              0244 
           LOCAL                   ADDRESS         
           =====                   =======         
           PCDIR                   0244 
           PCDIR_H                 0245 
           PCDIR_L                 0244 
    -------------------------------------------------------------------------
DATA16_AN
  Relative segment, address: 024A - 024B (0x2 bytes), align: 0
  Segment part 9. ROOT        Intra module refs:   setup_IO
                                                   uart_setupIO (modem_uart)
           ENTRY                   ADDRESS         REF BY
           =====                   =======         ======
           _A_PCSEL0_L             024A 
           LOCAL                   ADDRESS         
           =====                   =======         
           PCSEL0                  024A 
           PCSEL0_H                024B 
           PCSEL0_L                024A 
    -------------------------------------------------------------------------
DATA16_AN
  Relative segment, address: 024C - 024D (0x2 bytes), align: 0
  Segment part 10. ROOT       Intra module refs:   setup_IO
                                                   uart_setupIO (modem_uart)
           ENTRY                   ADDRESS         REF BY
           =====                   =======         ======
           _A_PCSEL1_L             024C 
           LOCAL                   ADDRESS         
           =====                   =======         
           PCSEL1                  024C 
           PCSEL1_H                024D 
           PCSEL1_L                024C 
    -------------------------------------------------------------------------
DATA16_AN
  Relative segment, address: 0130 - 0131 (0x2 bytes), align: 0
  Segment part 11. ROOT       Intra module refs:   setup_IO
           ENTRY                   ADDRESS         REF BY
           =====                   =======         ======
           _A_PM5CTL0_L            0130 
           LOCAL                   ADDRESS         
           =====                   =======         
           PM5CTL0                 0130 
           PM5CTL0_H               0131 
           PM5CTL0_L               0130 
    -------------------------------------------------------------------------
DATA16_Z
  Relative segment, address: 21FE - 21FF (0x2 bytes), align: 1
  Segment part 20.            Intra module refs:   system_boot
           ENTRY                   ADDRESS         REF BY
           =====                   =======         ======
           g_iRunning              21FE 
    -------------------------------------------------------------------------
DATA16_Z
  Relative segment, address: 2200 - 2211 (0x12 bytes), align: 1
  Segment part 21.            Intra module refs:   main
           ENTRY                   ADDRESS         REF BY
           =====                   =======         ======
           rtime                   2200 
    -------------------------------------------------------------------------
DATA16_Z
  Relative segment, address: 2741 - 2743 (0x3 bytes), align: 0
  Segment part 22.            Intra module refs:   main
           ENTRY                   ADDRESS         REF BY
           =====                   =======         ======
           flags                   2741            RTC_C_ISR (rtc)
                                                   USCI_A0_ISR (debug)
                                                   USCI_A1_ISR (fridge_uart)
                                                   USCI_A2_ISR (modem_uart)
                                                   add_sec_in_date_time (packet_format)
                                                   append_data_in_buffer (packet_format)
                                                   batt_current (battery)
                                                   batt_getlevel (battery)
                                                   check_batt_state (battery)
                                                   check_for_OTA (ota)
                                                   check_internet (modem)
                                                   check_radio_signal (modem)
                                                   check_sensor_alarm (device_alarms)
                                                   config_parse_configuration_sms (config)
                                                   default_param_reset (config)
                                                   dev_sms_cofig (sms)
                                                   dev_sms_parsing (sms)
                                                   device_ready_http (packet_format)
                                                   event_upload_samples (events)
                                                   events_health_check (events)
                                                   extFlashPowerDown (spi_flash)
                                                   extFlashPowerStandby (spi_flash)
                                                   get_local_time (packet_format)
                                                   gprs_config_dev (sms)
                                                   gsm_exit_sleep (modem)
                                                   gsm_init (modem)
                                                   led_blink (rtc)
                                                   ota_sms (sms)
                                                   parse_diag_command (debug)
                                                   read_alarm_packets (device_alarms)
                                                   read_indexes (spi_flash)
                                                   send_cmd_wait (modem_uart)
                                                   send_data (modem)
                                                   send_data_to_server (packet_format)
                                                   send_sms (modem)
                                                   temp_check (temperature)
                                                   upload_packet_sms (modem)
    -------------------------------------------------------------------------
DATA16_Z
  Relative segment, address: 2212 - 2213 (0x2 bytes), align: 1
  Segment part 23.
           ENTRY                   ADDRESS         REF BY
           =====                   =======         ======
           g_uch_status            2212            ?Subroutine32 (modem)
                                                   fridge_sampled_data (fridge_data)
                                                   read_alarm_packets (device_alarms)
                                                   temp_sampled_data (modem)
    -------------------------------------------------------------------------
<CODE> 1 (was CODE)
  Relative segment, address: 00011392 - 000113EF (0x5e bytes), align: 1
  Segment part 25.            Intra module refs:   system_boot
           LOCAL                   ADDRESS         
           =====                   =======         
           setup_IO                00011392 
               calls direct
    -------------------------------------------------------------------------
<CODE> 1 (was CODE)
  Relative segment, address: 00012F0A - 00012F11 (0x8 bytes), align: 1
  Segment part 26.            Intra module refs:   modem_reset
           ENTRY                   ADDRESS         REF BY
           =====                   =======         ======
           modem_turn_on           00012F0A 
    -------------------------------------------------------------------------
<CODE> 1 (was CODE)
  Relative segment, address: 00012F12 - 00012F19 (0x8 bytes), align: 1
  Segment part 27.            Intra module refs:   modem_reset
           ENTRY                   ADDRESS         REF BY
           =====                   =======         ======
           modem_turn_off          00012F12 
    -------------------------------------------------------------------------
<CODE> 1 (was CODE)
  Relative segment, address: 00012A10 - 00012A1F (0x10 bytes), align: 1
  Segment part 28.            Intra module refs:   system_boot
           ENTRY                   ADDRESS         REF BY
           =====                   =======         ======
           modem_reset             00012A10 
               calls direct
    -------------------------------------------------------------------------
<CODE> 1 (was CODE)
  Relative segment, address: 00011AB8 - 00011AF5 (0x3e bytes), align: 1
  Segment part 30.            Intra module refs:   main
           ENTRY                   ADDRESS         REF BY
           =====                   =======         ======
           system_boot             00011AB8 
               calls direct
    -------------------------------------------------------------------------
<CODE> 1 (was CODE)
  Relative segment, address: 000102DE - 00010387 (0xaa bytes), align: 1
  Segment part 31.
           ENTRY                   ADDRESS         REF BY
           =====                   =======         ======
           main                    000102DE        Segment part 26 (?cstart)
               calls direct
    -------------------------------------------------------------------------
DATA16_C
  Relative segment, address: 5E8A - 5EB1 (0x28 bytes), align: 0
  Segment part 14.            Intra module refs:   system_boot
    -------------------------------------------------------------------------
DATA16_C
  Relative segment, address: 5EB2 - 5EC1 (0x10 bytes), align: 0
  Segment part 15.            Intra module refs:   system_boot
    -------------------------------------------------------------------------
DATA16_C
  Relative segment, address: 5EC2 - 5ECB (0xa bytes), align: 0
  Segment part 16.            Intra module refs:   main
    -------------------------------------------------------------------------
DATA16_C
  Relative segment, address: 5ECC - 5EDB (0x10 bytes), align: 0
  Segment part 17.            Intra module refs:   main
    -------------------------------------------------------------------------
DATA16_C
  Relative segment, address: 5EDC - 5F26 (0x4b bytes), align: 0
  Segment part 18.            Intra module refs:   main
    -------------------------------------------------------------------------
DATA16_C
  Relative segment, address: 5F27 - 5F29 (0x3 bytes), align: 0
  Segment part 19.            Intra module refs:   main

    *************************************************************************

  FILE NAME : E:\NLAU_FISM_SDK_july20\tempsensor_v1\IAR\nlau_fism_1_aug\NLAU_FISM_SDK\tempsensor_v1\IAR\Fism\Obj\minIni.r43
    *************************************************************************

  FILE NAME : E:\NLAU_FISM_SDK_july20\tempsensor_v1\IAR\nlau_fism_1_aug\NLAU_FISM_SDK\tempsensor_v1\IAR\Fism\Obj\modem.r43
  PROGRAM MODULE, NAME : modem

  SEGMENTS IN THE MODULE
  ======================
DATA16_Z
  Relative segment, address: 2744 - 2757 (0x14 bytes), align: 0
  Segment part 123.           Intra module refs:   parse_imei
                                                   send_deviceready
                                                   temp_sampled_data
           ENTRY                   ADDRESS         REF BY
           =====                   =======         ======
           device_imei             2744            alarm_packet (device_alarms)
                                                   check_battery_alarm (device_alarms)
                                                   check_sensor_alarm (device_alarms)
                                                   device_ready_http (packet_format)
                                                   fridge_sampled_data (fridge_data)
                                                   parse_input_value_for_sms (packet_format)
    -------------------------------------------------------------------------
DATA16_Z
  Relative segment, address: 2758 - 276D (0x16 bytes), align: 0
  Segment part 124.           Intra module refs:   check_ccid
                                                   send_deviceready
           ENTRY                   ADDRESS         REF BY
           =====                   =======         ======
           ccid                    2758            device_ready_http (packet_format)
    -------------------------------------------------------------------------
DATA16_Z
  Relative segment, address: 276E - 2781 (0x14 bytes), align: 0
  Segment part 125.           Intra module refs:   check_gsm_fw
           ENTRY                   ADDRESS         REF BY
           =====                   =======         ======
           gsm_fw                  276E 
    -------------------------------------------------------------------------
DATA16_I
  Relative segment, address: 21B2 - 21D1 (0x20 bytes), align: 0
  Segment part 126.           Intra module refs:   gsm_init
           ENTRY                   ADDRESS         REF BY
           =====                   =======         ======
           device_apn              21B2            ota_process (ota)
                                                   read_apn (apn_config)
    -------------------------------------------------------------------------
DATA16_Z
  Relative segment, address: 2782 - 2782 (0x1 bytes), align: 0
  Segment part 128.           Intra module refs:   ?Subroutine5
                                                   gsm_init
           ENTRY                   ADDRESS         REF BY
           =====                   =======         ======
           wake_gsm                2782 
    -------------------------------------------------------------------------
DATA16_C
  Relative segment, address: 5F2A - 5F32 (0x9 bytes), align: 0
  Segment part 28.            Intra module refs:   check_radio_signal
    -------------------------------------------------------------------------
DATA16_C
  Relative segment, address: 5F33 - 5F35 (0x3 bytes), align: 0
  Segment part 37.            Intra module refs:   gsm_exit_sleep
                                                   gsm_init
    -------------------------------------------------------------------------
DATA16_C
  Relative segment, address: 5F36 - 5F37 (0x2 bytes), align: 0
  Segment part 41.            Intra module refs:   get_sim_num
    -------------------------------------------------------------------------
DATA16_C
  Relative segment, address: 5F38 - 5F41 (0xa bytes), align: 0
  Segment part 45.            Intra module refs:   send_sms
    -------------------------------------------------------------------------
DATA16_C
  Relative segment, address: 5F42 - 5F45 (0x4 bytes), align: 0
  Segment part 46.            Intra module refs:   send_sms
    -------------------------------------------------------------------------
DATA16_C
  Relative segment, address: 5F46 - 5F47 (0x2 bytes), align: 0
  Segment part 47.            Intra module refs:   send_sms
    -------------------------------------------------------------------------
DATA16_C
  Relative segment, address: 5F48 - 5F49 (0x2 bytes), align: 0
  Segment part 48.            Intra module refs:   send_sms
    -------------------------------------------------------------------------
DATA16_C
  Relative segment, address: 5F4A - 5F4C (0x3 bytes), align: 0
  Segment part 49.            Intra module refs:   gsm_exit_sleep
                                                   gsm_init
                                                   send_sms
                                                   temp_sampled_data
    -------------------------------------------------------------------------
DATA16_C
  Relative segment, address: 5F4D - 5F53 (0x7 bytes), align: 0
  Segment part 50.            Intra module refs:   send_sms
    -------------------------------------------------------------------------
DATA16_C
  Relative segment, address: 5F54 - 5F5E (0xb bytes), align: 0
  Segment part 51.            Intra module refs:   ?Subroutine35
    -------------------------------------------------------------------------
DATA16_C
  Relative segment, address: 5F5F - 5F66 (0x8 bytes), align: 0
  Segment part 52.            Intra module refs:   ?Subroutine35
    -------------------------------------------------------------------------
DATA16_C
  Relative segment, address: 5F67 - 5F6C (0x6 bytes), align: 0
  Segment part 53.            Intra module refs:   check_radio_signal
    -------------------------------------------------------------------------
DATA16_C
  Relative segment, address: 5F6D - 5F76 (0xa bytes), align: 0
  Segment part 54.            Intra module refs:   get_sim_num
    -------------------------------------------------------------------------
DATA16_C
  Relative segment, address: 5F77 - 5F7B (0x5 bytes), align: 0
  Segment part 55.            Intra module refs:   ?Subroutine23
                                                   ?Subroutine25
                                                   check_ccid
                                                   check_gsm_fw
                                                   get_sim_num
                                                   parse_imei
                                                   send_data
                                                   sms_call_init
    -------------------------------------------------------------------------
DATA16_C
  Relative segment, address: 5F7C - 5F82 (0x7 bytes), align: 0
  Segment part 56.            Intra module refs:   get_sim_num
    -------------------------------------------------------------------------
DATA16_C
  Relative segment, address: 5F83 - 5F84 (0x2 bytes), align: 0
  Segment part 57.            Intra module refs:   get_sim_num
    -------------------------------------------------------------------------
DATA16_C
  Relative segment, address: 5F85 - 5F8E (0xa bytes), align: 0
  Segment part 58.            Intra module refs:   get_sim_num
    -------------------------------------------------------------------------
DATA16_C
  Relative segment, address: 5F8F - 5F91 (0x3 bytes), align: 0
  Segment part 59.            Intra module refs:   get_sim_num
                                                   send_deviceready
    -------------------------------------------------------------------------
DATA16_C
  Relative segment, address: 5F92 - 5F95 (0x4 bytes), align: 0
  Segment part 60.            Intra module refs:   send_deviceready
    -------------------------------------------------------------------------
DATA16_C
  Relative segment, address: 5F96 - 5F9E (0x9 bytes), align: 0
  Segment part 61.            Intra module refs:   send_deviceready
    -------------------------------------------------------------------------
DATA16_C
  Relative segment, address: 5F9F - 5FA4 (0x6 bytes), align: 0
  Segment part 62.            Intra module refs:   send_deviceready
    -------------------------------------------------------------------------
DATA16_C
  Relative segment, address: 5FA5 - 5FA9 (0x5 bytes), align: 0
  Segment part 63.            Intra module refs:   send_deviceready
    -------------------------------------------------------------------------
DATA16_C
  Relative segment, address: 5FAA - 5FEB (0x42 bytes), align: 0
  Segment part 64.            Intra module refs:   send_deviceready
    -------------------------------------------------------------------------
DATA16_C
  Relative segment, address: 5FEC - 5FF2 (0x7 bytes), align: 0
  Segment part 65.            Intra module refs:   send_deviceready
    -------------------------------------------------------------------------
DATA16_C
  Relative segment, address: 5FF3 - 5FFE (0xc bytes), align: 0
  Segment part 66.            Intra module refs:   sms_call_init
    -------------------------------------------------------------------------
DATA16_C
  Relative segment, address: 5FFF - 600E (0x10 bytes), align: 0
  Segment part 67.            Intra module refs:   gsm_init
                                                   sms_call_init
    -------------------------------------------------------------------------
DATA16_C
  Relative segment, address: 600F - 6023 (0x15 bytes), align: 0
  Segment part 68.            Intra module refs:   sms_call_init
    -------------------------------------------------------------------------
DATA16_C
  Relative segment, address: 6024 - 6041 (0x1e bytes), align: 0
  Segment part 69.            Intra module refs:   gsm_init
    -------------------------------------------------------------------------
DATA16_C
  Relative segment, address: 6042 - 604E (0xd bytes), align: 0
  Segment part 70.            Intra module refs:   gsm_exit_sleep
                                                   gsm_init
    -------------------------------------------------------------------------
DATA16_C
  Relative segment, address: 604F - 6053 (0x5 bytes), align: 0
  Segment part 71.            Intra module refs:   gsm_init
    -------------------------------------------------------------------------
DATA16_C
  Relative segment, address: 6054 - 605A (0x7 bytes), align: 0
  Segment part 72.            Intra module refs:   gsm_init
    -------------------------------------------------------------------------
DATA16_C
  Relative segment, address: 605B - 606B (0x11 bytes), align: 0
  Segment part 73.            Intra module refs:   gsm_init
    -------------------------------------------------------------------------
DATA16_C
  Relative segment, address: 606C - 6077 (0xc bytes), align: 0
  Segment part 74.            Intra module refs:   gsm_init
    -------------------------------------------------------------------------
DATA16_C
  Relative segment, address: 6078 - 6083 (0xc bytes), align: 0
  Segment part 75.            Intra module refs:   gsm_init
    -------------------------------------------------------------------------
DATA16_C
  Relative segment, address: 6084 - 608A (0x7 bytes), align: 0
  Segment part 76.            Intra module refs:   ?Subroutine20
    -------------------------------------------------------------------------
DATA16_C
  Relative segment, address: 608B - 6095 (0xb bytes), align: 0
  Segment part 77.            Intra module refs:   gsm_init
    -------------------------------------------------------------------------
DATA16_C
  Relative segment, address: 6096 - 609B (0x6 bytes), align: 0
  Segment part 78.            Intra module refs:   gsm_init
    -------------------------------------------------------------------------
DATA16_C
  Relative segment, address: 609C - 60A7 (0xc bytes), align: 0
  Segment part 79.            Intra module refs:   gsm_init
    -------------------------------------------------------------------------
DATA16_C
  Relative segment, address: 60A8 - 60B3 (0xc bytes), align: 0
  Segment part 80.            Intra module refs:   gsm_init
    -------------------------------------------------------------------------
DATA16_C
  Relative segment, address: 60B4 - 60BF (0xc bytes), align: 0
  Segment part 81.            Intra module refs:   gsm_init
    -------------------------------------------------------------------------
DATA16_C
  Relative segment, address: 60C0 - 60CB (0xc bytes), align: 0
  Segment part 82.            Intra module refs:   gsm_init
    -------------------------------------------------------------------------
DATA16_C
  Relative segment, address: 60CC - 60D4 (0x9 bytes), align: 0
  Segment part 83.            Intra module refs:   gsm_init
    -------------------------------------------------------------------------
DATA16_C
  Relative segment, address: 60D5 - 60E0 (0xc bytes), align: 0
  Segment part 84.            Intra module refs:   gsm_init
    -------------------------------------------------------------------------
DATA16_C
  Relative segment, address: 60E1 - 60E7 (0x7 bytes), align: 0
  Segment part 85.            Intra module refs:   gsm_init
    -------------------------------------------------------------------------
DATA16_C
  Relative segment, address: 60E8 - 60F4 (0xd bytes), align: 0
  Segment part 86.            Intra module refs:   gsm_init
    -------------------------------------------------------------------------
DATA16_C
  Relative segment, address: 60F5 - 60FD (0x9 bytes), align: 0
  Segment part 87.            Intra module refs:   ?Subroutine27
    -------------------------------------------------------------------------
DATA16_C
  Relative segment, address: 60FE - 6107 (0xa bytes), align: 0
  Segment part 88.            Intra module refs:   gsm_init
    -------------------------------------------------------------------------
DATA16_C
  Relative segment, address: 6108 - 6112 (0xb bytes), align: 0
  Segment part 89.            Intra module refs:   ?Subroutine26
    -------------------------------------------------------------------------
DATA16_C
  Relative segment, address: 6113 - 6132 (0x20 bytes), align: 0
  Segment part 90.            Intra module refs:   gsm_init
    -------------------------------------------------------------------------
DATA16_C
  Relative segment, address: 6133 - 614C (0x1a bytes), align: 0
  Segment part 91.            Intra module refs:   gsm_init
    -------------------------------------------------------------------------
DATA16_C
  Relative segment, address: 614D - 615B (0xf bytes), align: 0
  Segment part 92.            Intra module refs:   gsm_init
    -------------------------------------------------------------------------
DATA16_C
  Relative segment, address: 615C - 617A (0x1f bytes), align: 0
  Segment part 93.            Intra module refs:   gsm_init
    -------------------------------------------------------------------------
DATA16_C
  Relative segment, address: 617B - 6189 (0xf bytes), align: 0
  Segment part 94.            Intra module refs:   gsm_init
    -------------------------------------------------------------------------
DATA16_C
  Relative segment, address: 618A - 6193 (0xa bytes), align: 0
  Segment part 95.            Intra module refs:   gsm_init
    -------------------------------------------------------------------------
DATA16_C
  Relative segment, address: 6194 - 61D3 (0x40 bytes), align: 0
  Segment part 96.            Intra module refs:   send_data
    -------------------------------------------------------------------------
DATA16_C
  Relative segment, address: 61D4 - 61E1 (0xe bytes), align: 0
  Segment part 97.            Intra module refs:   http_init
    -------------------------------------------------------------------------
DATA16_C
  Relative segment, address: 61E2 - 61EF (0xe bytes), align: 0
  Segment part 98.            Intra module refs:   http_init
    -------------------------------------------------------------------------
DATA16_C
  Relative segment, address: 61F0 - 6205 (0x16 bytes), align: 0
  Segment part 99.            Intra module refs:   http_init
    -------------------------------------------------------------------------
DATA16_C
  Relative segment, address: 6206 - 6222 (0x1d bytes), align: 0
  Segment part 100.           Intra module refs:   http_init
    -------------------------------------------------------------------------
DATA16_C
  Relative segment, address: 6223 - 624D (0x2b bytes), align: 0
  Segment part 101.           Intra module refs:   http_init
    -------------------------------------------------------------------------
DATA16_C
  Relative segment, address: 624E - 6260 (0x13 bytes), align: 0
  Segment part 102.           Intra module refs:   check_internet
    -------------------------------------------------------------------------
DATA16_C
  Relative segment, address: 6261 - 626B (0xb bytes), align: 0
  Segment part 103.           Intra module refs:   check_internet
    -------------------------------------------------------------------------
DATA16_C
  Relative segment, address: 626C - 6279 (0xe bytes), align: 0
  Segment part 104.           Intra module refs:   check_internet
    -------------------------------------------------------------------------
DATA16_C
  Relative segment, address: 627A - 6283 (0xa bytes), align: 0
  Segment part 105.           Intra module refs:   check_ccid
    -------------------------------------------------------------------------
DATA16_C
  Relative segment, address: 6284 - 628C (0x9 bytes), align: 0
  Segment part 106.           Intra module refs:   parse_imei
    -------------------------------------------------------------------------
DATA16_C
  Relative segment, address: 628D - 6296 (0xa bytes), align: 0
  Segment part 107.           Intra module refs:   check_gsm_fw
    -------------------------------------------------------------------------
DATA16_C
  Relative segment, address: 6297 - 62AE (0x18 bytes), align: 0
  Segment part 108.           Intra module refs:   gsm_exit_sleep
    -------------------------------------------------------------------------
DATA16_C
  Relative segment, address: 62AF - 62C4 (0x16 bytes), align: 0
  Segment part 109.           Intra module refs:   gsm_exit_sleep
    -------------------------------------------------------------------------
DATA16_C
  Relative segment, address: 62C5 - 62FA (0x36 bytes), align: 0
  Segment part 112.           Intra module refs:   temp_sampled_data
    -------------------------------------------------------------------------
DATA16_C
  Relative segment, address: 62FB - 630C (0x12 bytes), align: 0
  Segment part 113.           Intra module refs:   temp_sampled_data
    -------------------------------------------------------------------------
DATA16_C
  Relative segment, address: 630D - 6311 (0x5 bytes), align: 0
  Segment part 114.           Intra module refs:   temp_sampled_data
    -------------------------------------------------------------------------
DATA16_C
  Relative segment, address: 6312 - 6329 (0x18 bytes), align: 0
  Segment part 115.           Intra module refs:   temp_sampled_data
    -------------------------------------------------------------------------
DATA16_C
  Relative segment, address: 632A - 6340 (0x17 bytes), align: 0
  Segment part 116.           Intra module refs:   temp_sampled_data
    -------------------------------------------------------------------------
DATA16_C
  Relative segment, address: 6341 - 634B (0xb bytes), align: 0
  Segment part 117.           Intra module refs:   parse_base_station_info
    -------------------------------------------------------------------------
DATA16_C
  Relative segment, address: 634C - 6356 (0xb bytes), align: 0
  Segment part 118.           Intra module refs:   parse_base_station_info
    -------------------------------------------------------------------------
DATA16_C
  Relative segment, address: 6357 - 6377 (0x21 bytes), align: 0
  Segment part 119.           Intra module refs:   parse_base_station_info
    -------------------------------------------------------------------------
<CODE,LOW_MEM> 1 (was CODE)
  Relative segment, address: 6D26 - 6DB5 (0x90 bytes), align: 1
  Segment part 166.           Intra module refs:   send_deviceready
                                                   temp_sampled_data
           ENTRY                   ADDRESS         REF BY
           =====                   =======         ======
           send_sms                6D26            alarm_sms (alarms)
               calls direct
    -------------------------------------------------------------------------
<CODE,LOW_MEM> 1 (was CODE)
  Relative segment, address: 6DB6 - 6DB9 (0x4 bytes), align: 1
  Segment part 167.           Intra module refs:   check_internet
                                                   gsm_exit_sleep
                                                   send_sms
           LOCAL                   ADDRESS         
           =====                   =======         
           ?Subroutine10           6DB6 
    -------------------------------------------------------------------------
<CODE,LOW_MEM> 1 (was CODE)
  Relative segment, address: 6DBA - 6DC1 (0x8 bytes), align: 1
  Segment part 168.           Intra module refs:   ?Subroutine10
                                                   get_sim_num
    -------------------------------------------------------------------------
<CODE,LOW_MEM> 1 (was CODE)
  Relative segment, address: 6DC2 - 6E9B (0xda bytes), align: 1
  Segment part 169.           Intra module refs:   gsm_init
           ENTRY                   ADDRESS         REF BY
           =====                   =======         ======
           send_deviceready        6DC2            dev_sms_cofig (sms)
               calls direct
    -------------------------------------------------------------------------
<CODE,LOW_MEM> 1 (was CODE)
  Relative segment, address: 6E9C - 6ECF (0x34 bytes), align: 1
  Segment part 170.           Intra module refs:   gsm_init
                                                   upload_packet_sms
           ENTRY                   ADDRESS         REF BY
           =====                   =======         ======
           http_init               6E9C            ota_process (ota)
               calls direct
    -------------------------------------------------------------------------
<CODE,LOW_MEM> 1 (was CODE)
  Relative segment, address: 6ED0 - 6ED1 (0x2 bytes), align: 1
  Segment part 171.           Intra module refs:   http_init
           LOCAL                   ADDRESS         
           =====                   =======         
           ?Subroutine24           6ED0 
    -------------------------------------------------------------------------
<CODE,LOW_MEM> 1 (was CODE)
  Relative segment, address: 6ED2 - 6ED9 (0x8 bytes), align: 1
  Segment part 172.           Intra module refs:   ?Subroutine24
                                                   http_init
    -------------------------------------------------------------------------
<CODE,LOW_MEM> 1 (was CODE)
  Relative segment, address: 6EDA - 6F21 (0x48 bytes), align: 1
  Segment part 173.           Intra module refs:   gsm_init
           ENTRY                   ADDRESS         REF BY
           =====                   =======         ======
           check_internet          6EDA            event_upload_samples (events)
                                                   parse_diag_command (debug)
               calls direct
    -------------------------------------------------------------------------
<CODE,LOW_MEM> 1 (was CODE)
  Relative segment, address: 6F22 - 6FD9 (0xb8 bytes), align: 1
  Segment part 174.           Intra module refs:   gsm_init
           ENTRY                   ADDRESS         REF BY
           =====                   =======         ======
           check_radio_signal      6F22            append_data_in_buffer (packet_format)
                                                   parse_diag_command (debug)
               calls direct
    -------------------------------------------------------------------------
<CODE,LOW_MEM> 1 (was CODE)
  Relative segment, address: 6FDA - 6FE5 (0xc bytes), align: 1
  Segment part 175.           Intra module refs:   check_internet
                                                   check_radio_signal
           LOCAL                   ADDRESS         
           =====                   =======         
           ?Subroutine22           6FDA 
    -------------------------------------------------------------------------
DATA16_Z
  Relative segment, address: 2783 - 2783 (0x1 bytes), align: 0
  Segment part 145.           Intra module refs:   check_internet
           LOCAL                   ADDRESS         
           =====                   =======         
           check_internet::retry_count
                                   2783 
    -------------------------------------------------------------------------
<CODE,LOW_MEM> 1 (was CODE)
  Relative segment, address: 6FE6 - 7023 (0x3e bytes), align: 1
  Segment part 176.           Intra module refs:   gsm_init
           ENTRY                   ADDRESS         REF BY
           =====                   =======         ======
           check_gsm_fw            6FE6 
               calls direct
    -------------------------------------------------------------------------
<CODE,LOW_MEM> 1 (was CODE)
  Relative segment, address: 7024 - 7061 (0x3e bytes), align: 1
  Segment part 177.           Intra module refs:   gsm_init
           ENTRY                   ADDRESS         REF BY
           =====                   =======         ======
           check_ccid              7024 
               calls direct
    -------------------------------------------------------------------------
<CODE,LOW_MEM> 1 (was CODE)
  Relative segment, address: 7062 - 70E9 (0x88 bytes), align: 1
  Segment part 178.           Intra module refs:   gsm_init
           ENTRY                   ADDRESS         REF BY
           =====                   =======         ======
           get_sim_num             7062 
               calls direct
    -------------------------------------------------------------------------
<CODE,LOW_MEM> 1 (was CODE)
  Relative segment, address: 70EA - 70F1 (0x8 bytes), align: 1
  Segment part 179.           Intra module refs:   get_sim_num
                                                   send_deviceready
           LOCAL                   ADDRESS         
           =====                   =======         
           ?Subroutine15           70EA 
    -------------------------------------------------------------------------
<CODE,LOW_MEM> 1 (was CODE)
  Relative segment, address: 70F2 - 71A3 (0xb2 bytes), align: 1
  Segment part 180.           Intra module refs:   gsm_init
           ENTRY                   ADDRESS         REF BY
           =====                   =======         ======
           parse_base_station_info
                                   70F2 
               calls direct
    -------------------------------------------------------------------------
<CODE,LOW_MEM> 1 (was CODE)
  Relative segment, address: 71A4 - 71C5 (0x22 bytes), align: 1
  Segment part 181.           Intra module refs:   gsm_init
           ENTRY                   ADDRESS         REF BY
           =====                   =======         ======
           sms_call_init           71A4 
               calls direct
    -------------------------------------------------------------------------
<CODE,LOW_MEM> 1 (was CODE)
  Relative segment, address: 71C6 - 71D5 (0x10 bytes), align: 1
  Segment part 182.           Intra module refs:   sms_call_init
           LOCAL                   ADDRESS         
           =====                   =======         
           ?Subroutine23           71C6 
    -------------------------------------------------------------------------
<CODE,LOW_MEM> 1 (was CODE)
  Relative segment, address: 71D6 - 723B (0x66 bytes), align: 1
  Segment part 183.           Intra module refs:   gsm_init
           ENTRY                   ADDRESS         REF BY
           =====                   =======         ======
           parse_imei              71D6 
               calls direct
    -------------------------------------------------------------------------
<CODE,LOW_MEM> 1 (was CODE)
  Relative segment, address: 723C - 74AD (0x272 bytes), align: 1
  Segment part 184.
           ENTRY                   ADDRESS         REF BY
           =====                   =======         ======
           gsm_init                723C            event_upload_samples (events)
                                                   main (main_system)
                                                   system_boot (main_system)
               calls direct
    -------------------------------------------------------------------------
<CODE,LOW_MEM> 1 (was CODE)
  Relative segment, address: 74AE - 74BD (0x10 bytes), align: 1
  Segment part 185.           Intra module refs:   ?Subroutine22
                                                   gsm_init
           LOCAL                   ADDRESS         
           =====                   =======         
           ?Subroutine35           74AE 
    -------------------------------------------------------------------------
<CODE,LOW_MEM> 1 (was CODE)
  Relative segment, address: 74BE - 74CF (0x12 bytes), align: 1
  Segment part 186.           Intra module refs:   gsm_init
           LOCAL                   ADDRESS         
           =====                   =======         
           ?Subroutine27           74BE 
    -------------------------------------------------------------------------
<CODE,LOW_MEM> 1 (was CODE)
  Relative segment, address: 74D0 - 74DB (0xc bytes), align: 1
  Segment part 187.           Intra module refs:   gsm_init
           LOCAL                   ADDRESS         
           =====                   =======         
           ?Subroutine26           74D0 
    -------------------------------------------------------------------------
<CODE,LOW_MEM> 1 (was CODE)
  Relative segment, address: 74DC - 74E9 (0xe bytes), align: 1
  Segment part 188.           Intra module refs:   gsm_init
                                                   http_init
           LOCAL                   ADDRESS         
           =====                   =======         
           ?Subroutine25           74DC 
    -------------------------------------------------------------------------
<CODE,LOW_MEM> 1 (was CODE)
  Relative segment, address: 74EA - 74F5 (0xc bytes), align: 1
  Segment part 189.           Intra module refs:   gsm_init
           LOCAL                   ADDRESS         
           =====                   =======         
           ?Subroutine20           74EA 
    -------------------------------------------------------------------------
<CODE,LOW_MEM> 1 (was CODE)
  Relative segment, address: 74F6 - 7513 (0x1e bytes), align: 1
  Segment part 190.           Intra module refs:   gsm_init
           LOCAL                   ADDRESS         
           =====                   =======         
           ?Subroutine5            74F6 
    -------------------------------------------------------------------------
<CODE,LOW_MEM> 1 (was CODE)
  Relative segment, address: 7514 - 751D (0xa bytes), align: 1
  Segment part 200.           Intra module refs:   get_sim_num
           LOCAL                   ADDRESS         
           =====                   =======         
           ?Subroutine13           7514 
    -------------------------------------------------------------------------
<CODE,LOW_MEM> 1 (was CODE)
  Relative segment, address: 751E - 7525 (0x8 bytes), align: 1
  Segment part 203.           Intra module refs:   parse_base_station_info
                                                   send_data
                                                   send_deviceready
           LOCAL                   ADDRESS         
           =====                   =======         
           ?Subroutine14           751E 
    -------------------------------------------------------------------------
<CODE,LOW_MEM> 1 (was CODE)
  Relative segment, address: 7526 - 752B (0x6 bytes), align: 1
  Segment part 207.           Intra module refs:   temp_sampled_data
           LOCAL                   ADDRESS         
           =====                   =======         
           ?Subroutine7            7526 
    -------------------------------------------------------------------------
<CODE,LOW_MEM> 1 (was CODE)
  Relative segment, address: 752C - 7533 (0x8 bytes), align: 1
  Segment part 213.           Intra module refs:   gsm_init
           LOCAL                   ADDRESS         
           =====                   =======         
           ?Subroutine16           752C 
    -------------------------------------------------------------------------
<CODE,LOW_MEM> 1 (was CODE)
  Relative segment, address: 7534 - 7537 (0x4 bytes), align: 1
  Segment part 233.           Intra module refs:   temp_sampled_data
           LOCAL                   ADDRESS         
           =====                   =======         
           ?Subroutine6            7534 
    -------------------------------------------------------------------------
<CODE,LOW_MEM> 1 (was CODE)
  Relative segment, address: 7538 - 753D (0x6 bytes), align: 1
  Segment part 234.           Intra module refs:   ?Subroutine6
                                                   send_sms
                                                   temp_sampled_data
    -------------------------------------------------------------------------
<CODE> 1 (was CODE)
  Relative segment, address: 000115A6 - 000115F7 (0x52 bytes), align: 1
  Segment part 221.           Intra module refs:   temp_sampled_data
           ENTRY                   ADDRESS         REF BY
           =====                   =======         ======
           send_data               000115A6        fridge_sampled_data (fridge_data)
               calls direct
    -------------------------------------------------------------------------
<CODE> 1 (was CODE)
  Relative segment, address: 00011C98 - 00011CCD (0x36 bytes), align: 1
  Segment part 222.
           ENTRY                   ADDRESS         REF BY
           =====                   =======         ======
           upload_packet_sms       00011C98        event_upload_samples (events)
               calls direct
    -------------------------------------------------------------------------
<CODE> 1 (was CODE)
  Relative segment, address: 000110D6 - 0001113D (0x68 bytes), align: 1
  Segment part 223.
           ENTRY                   ADDRESS         REF BY
           =====                   =======         ======
           gsm_exit_sleep          000110D6        send_cmd_wait (modem_uart)
               calls direct
    -------------------------------------------------------------------------
<CODE,LOW_MEM> 1 (was CODE)
  Relative segment, address: 9C2C - 9DCF (0x1a4 bytes), align: 1
  Segment part 225.           Intra module refs:   upload_packet_sms
           ENTRY                   ADDRESS         REF BY
           =====                   =======         ======
           temp_sampled_data       9C2C 
               calls direct
    -------------------------------------------------------------------------
<CODE> 1 (was CODE)
  Relative segment, address: 00012E30 - 00012E39 (0xa bytes), align: 1
  Segment part 226.           Intra module refs:   temp_sampled_data
           LOCAL                   ADDRESS         
           =====                   =======         
           ?Subroutine33           00012E30 
    -------------------------------------------------------------------------
<CODE> 1 (was CODE)
  Relative segment, address: 00012B2C - 00012B39 (0xe bytes), align: 1
  Segment part 227.           Intra module refs:   temp_sampled_data
           LOCAL                   ADDRESS         
           =====                   =======         
           ?Subroutine32           00012B2C 
    -------------------------------------------------------------------------
<CODE> 1 (was CODE)
  Relative segment, address: 00012DD6 - 00012DDF (0xa bytes), align: 1
  Segment part 228.           Intra module refs:   temp_sampled_data
           LOCAL                   ADDRESS         
           =====                   =======         
           ?Subroutine31           00012DD6 
    -------------------------------------------------------------------------
<CODE> 1 (was CODE)
  Relative segment, address: 0001293C - 0001294D (0x12 bytes), align: 1
  Segment part 229.           Intra module refs:   temp_sampled_data
           LOCAL                   ADDRESS         
           =====                   =======         
           ?Subroutine28           0001293C 
    -------------------------------------------------------------------------
<CODE> 1 (was CODE)
  Relative segment, address: 00012DC2 - 00012DC5 (0x4 bytes), align: 1
  Segment part 230.           Intra module refs:   temp_sampled_data
           LOCAL                   ADDRESS         
           =====                   =======         
           ?Subroutine18           00012DC2 
    -------------------------------------------------------------------------
<CODE> 1 (was CODE)
  Relative segment, address: 00012DC6 - 00012DCB (0x6 bytes), align: 1
  Segment part 231.           Intra module refs:   ?Subroutine18
                                                   temp_sampled_data
    -------------------------------------------------------------------------
<CODE> 1 (was CODE)
  Relative segment, address: 00012DAA - 00012DB5 (0xc bytes), align: 1
  Segment part 232.           Intra module refs:   temp_sampled_data
           LOCAL                   ADDRESS         
           =====                   =======         
           ?Subroutine17           00012DAA 
    -------------------------------------------------------------------------
DATA16_ID
  Relative segment, address: 6A7E - 6A9D (0x20 bytes), align: 0
  Segment part 127.           Intra module refs:   device_apn

    *************************************************************************

  FILE NAME : E:\NLAU_FISM_SDK_july20\tempsensor_v1\IAR\nlau_fism_1_aug\NLAU_FISM_SDK\tempsensor_v1\IAR\Fism\Obj\modem_uart.r43
  PROGRAM MODULE, NAME : modem_uart

  SEGMENTS IN THE MODULE
  ======================
DATA16_AN
  Relative segment, address: 0204 - 0205 (0x2 bytes), align: 0
  Segment part 2. ROOT        Intra module refs:   uart_setupIO
           ENTRY                   ADDRESS         REF BY
           =====                   =======         ======
           _A_PADIR_L              0204 
           LOCAL                   ADDRESS         
           =====                   =======         
           PADIR                   0204 
           PADIR_H                 0205 
           PADIR_L                 0204 
    -------------------------------------------------------------------------
DATA16_AN
  Relative segment, address: 0226 - 0227 (0x2 bytes), align: 0
  Segment part 6. ROOT        Intra module refs:   uart_setupIO
           ENTRY                   ADDRESS         REF BY
           =====                   =======         ======
           _A_PBREN_L              0226 
           LOCAL                   ADDRESS         
           =====                   =======         
           PBREN                   0226 
           PBREN_H                 0227 
           PBREN_L                 0226 
    -------------------------------------------------------------------------
DATA16_AN
  Relative segment, address: 0242 - 0243 (0x2 bytes), align: 0
  Segment part 7. ROOT        Intra module refs:   uart_setupIO
           ENTRY                   ADDRESS         REF BY
           =====                   =======         ======
           _A_PCOUT_L              0242 
           LOCAL                   ADDRESS         
           =====                   =======         
           PCOUT                   0242 
           PCOUT_H                 0243 
           PCOUT_L                 0242 
    -------------------------------------------------------------------------
DATA16_AN
  Relative segment, address: 0246 - 0247 (0x2 bytes), align: 0
  Segment part 9. ROOT        Intra module refs:   uart_setupIO
           ENTRY                   ADDRESS         REF BY
           =====                   =======         ======
           _A_PCREN_L              0246 
           LOCAL                   ADDRESS         
           =====                   =======         
           PCREN                   0246 
           PCREN_H                 0247 
           PCREN_L                 0246 
    -------------------------------------------------------------------------
DATA16_AN
  Relative segment, address: 0600 - 0601 (0x2 bytes), align: 0
  Segment part 15. ROOT       Intra module refs:   uart_setupIO_clock
           ENTRY                   ADDRESS         REF BY
           =====                   =======         ======
           _A_UCA2CTLW0_L          0600 
           LOCAL                   ADDRESS         
           =====                   =======         
           UCA2CTLW0               0600 
           UCA2CTLW0_H             0601 
           UCA2CTLW0_L             0600 
    -------------------------------------------------------------------------
DATA16_AN
  Relative segment, address: 0606 - 0607 (0x2 bytes), align: 0
  Segment part 16. ROOT       Intra module refs:   uart_setupIO_clock
           ENTRY                   ADDRESS         REF BY
           =====                   =======         ======
           _A_UCA2BRW_L            0606 
           LOCAL                   ADDRESS         
           =====                   =======         
           UCA2BRW                 0606 
           UCA2BRW_H               0607 
           UCA2BRW_L               0606 
    -------------------------------------------------------------------------
DATA16_AN
  Relative segment, address: 0608 - 0609 (0x2 bytes), align: 0
  Segment part 17. ROOT       Intra module refs:   uart_setupIO_clock
           ENTRY                   ADDRESS         REF BY
           =====                   =======         ======
           _A_UCA2MCTLW_L          0608 
           LOCAL                   ADDRESS         
           =====                   =======         
           UCA2MCTLW               0608 
           UCA2MCTLW_H             0609 
           UCA2MCTLW_L             0608 
    -------------------------------------------------------------------------
DATA16_AN
  Relative segment, address: 060A - 060B (0x2 bytes), align: 0
  Segment part 18. ROOT       Intra module refs:   uartA2_xmit
           ENTRY                   ADDRESS         REF BY
           =====                   =======         ======
           _A_UCA2STATW_L          060A 
           LOCAL                   ADDRESS         
           =====                   =======         
           UCA2STATW               060A 
           UCA2STATW_H             060B 
           UCA2STATW_L             060A 
    -------------------------------------------------------------------------
DATA16_AN
  Relative segment, address: 060C - 060D (0x2 bytes), align: 0
  Segment part 19. ROOT       Intra module refs:   USCI_A2_ISR
           ENTRY                   ADDRESS         REF BY
           =====                   =======         ======
           _A_UCA2RXBUF_L          060C 
           LOCAL                   ADDRESS         
           =====                   =======         
           UCA2RXBUF               060C 
           UCA2RXBUF_H             060D 
           UCA2RXBUF_L             060C 
    -------------------------------------------------------------------------
DATA16_AN
  Relative segment, address: 060E - 060F (0x2 bytes), align: 0
  Segment part 20. ROOT       Intra module refs:   uartA2_xmit
           ENTRY                   ADDRESS         REF BY
           =====                   =======         ======
           _A_UCA2TXBUF_L          060E 
           LOCAL                   ADDRESS         
           =====                   =======         
           UCA2TXBUF               060E 
           UCA2TXBUF_H             060F 
           UCA2TXBUF_L             060E 
    -------------------------------------------------------------------------
DATA16_AN
  Relative segment, address: 061A - 061B (0x2 bytes), align: 0
  Segment part 21. ROOT       Intra module refs:   uart_setupIO_clock
           ENTRY                   ADDRESS         REF BY
           =====                   =======         ======
           _A_UCA2IE_L             061A 
           LOCAL                   ADDRESS         
           =====                   =======         
           UCA2IE                  061A 
           UCA2IE_H                061B 
           UCA2IE_L                061A 
    -------------------------------------------------------------------------
DATA16_AN
  Relative segment, address: 061E - 061F (0x2 bytes), align: 0
  Segment part 22. ROOT       Intra module refs:   USCI_A2_ISR
           ENTRY                   ADDRESS         REF BY
           =====                   =======         ======
           _A_UCA2IV_L             061E 
           LOCAL                   ADDRESS         
           =====                   =======         
           UCA2IV                  061E 
           UCA2IV_H                061F 
           UCA2IV_L                061E 
    -------------------------------------------------------------------------
DATA16_Z
  Relative segment, address: 2784 - 2913 (0x190 bytes), align: 0
  Segment part 25.            Intra module refs:   USCI_A2_ISR
                                                   send_cmd_wait
                                                   uart_getRXHead
           ENTRY                   ADDRESS         REF BY
           =====                   =======         ======
           GSM_buffer              2784            ?Subroutine10 (modem)
                                                   ?Subroutine9 (packet_format)
                                                   dev_sms_cofig (sms)
                                                   ota_process (ota)
                                                   parse_imei (modem)
                                                   read_apn (apn_config)
                                                   read_apn_config (file_system)
    -------------------------------------------------------------------------
DATA16_Z
  Relative segment, address: 2214 - 2215 (0x2 bytes), align: 1
  Segment part 26.            Intra module refs:   USCI_A2_ISR
                                                   send_cmd_wait
           ENTRY                   ADDRESS         REF BY
           =====                   =======         ======
           rec_buffer_index        2214 
    -------------------------------------------------------------------------
DATA16_Z
  Relative segment, address: 2216 - 224B (0x36 bytes), align: 1
  Segment part 31.            Intra module refs:   uart_getRXHead
           ENTRY                   ADDRESS         REF BY
           =====                   =======         ======
           uart                    2216 
    -------------------------------------------------------------------------
<CODE> 1 (was CODE)
  Relative segment, address: 00011BEC - 00011C27 (0x3c bytes), align: 1
  Segment part 42.
           ENTRY                   ADDRESS         REF BY
           =====                   =======         ======
           uart_setupIO            00011BEC        setup_IO (main_system)
    -------------------------------------------------------------------------
<CODE> 1 (was CODE)
  Relative segment, address: 00012788 - 0001279B (0x14 bytes), align: 1
  Segment part 45.
           ENTRY                   ADDRESS         REF BY
           =====                   =======         ======
           uart_getRXHead          00012788        config_parse_configuration_http (config)
                                                   dev_sms_parsing (sms)
                                                   get_sim_num (modem)
                                                   totalsms_count (sms)
    -------------------------------------------------------------------------
<CODE> 1 (was CODE)
  Relative segment, address: 000122F6 - 00012313 (0x1e bytes), align: 1
  Segment part 60.
           ENTRY                   ADDRESS         REF BY
           =====                   =======         ======
           uart_setupIO_clock      000122F6        setup_IO (main_system)
    -------------------------------------------------------------------------
ISR_CODE
  Relative segment, address: 6B7E - 6BB1 (0x34 bytes), align: 1
  Segment part 64.
           ENTRY                   ADDRESS         REF BY
           =====                   =======         ======
           USCI_A2_ISR             6B7E            main (main_system)
               interrupt function
               calls direct
    -------------------------------------------------------------------------
<CODE> 1 (was CODE)
  Relative segment, address: 00010DB2 - 00010E2B (0x7a bytes), align: 1
  Segment part 63.
           ENTRY                   ADDRESS         REF BY
           =====                   =======         ======
           send_cmd_wait           00010DB2        ?Subroutine22 (modem)
                                                   ?Subroutine23 (modem)
                                                   ?Subroutine25 (modem)
                                                   ?Subroutine4 (packet_format)
                                                   check_ccid (modem)
                                                   check_gsm_fw (modem)
                                                   check_internet (modem)
                                                   check_radio_signal (modem)
                                                   delete_sms (sms)
                                                   dev_sms_cofig (sms)
                                                   device_ready_http (packet_format)
                                                   event_upload_samples (events)
                                                   file_system (file_system)
                                                   get_sim_num (modem)
                                                   gprs_config_dev (sms)
                                                   gsm_exit_sleep (modem)
                                                   ota_process (ota)
                                                   parse_base_station_info (modem)
                                                   parse_diag_command (debug)
                                                   parse_imei (modem)
                                                   read_alarm_packets (device_alarms)
                                                   read_apn_config (file_system)
                                                   read_file_size (file_system)
                                                   send_data (modem)
                                                   send_data_to_server (packet_format)
                                                   send_sms (modem)
                                                   sms_call_init (modem)
                                                   totalsms_count (sms)
               calls direct
    -------------------------------------------------------------------------
<CODE> 1 (was CODE)
  Relative segment, address: 00012452 - 0001246D (0x1c bytes), align: 1
  Segment part 62.            Intra module refs:   send_cmd_wait
           ENTRY                   ADDRESS         REF BY
           =====                   =======         ======
           uartA2_xmit             00012452 
    -------------------------------------------------------------------------
<CODE> 1 (was CODE)
  Relative segment, address: 000124A4 - 000124BD (0x1a bytes), align: 1
  Segment part 61.            Intra module refs:   send_cmd_wait
           ENTRY                   ADDRESS         REF BY
           =====                   =======         ======
           delay_sec               000124A4        check_for_OTA (ota)
                                                   gsm_init (modem)
                                                   main (main_system)
                                                   send_data_to_server (packet_format)
    -------------------------------------------------------------------------
DATA16_C
  Relative segment, address: 6378 - 637A (0x3 bytes), align: 0
  Segment part 24.            Intra module refs:   send_cmd_wait

    *************************************************************************

  FILE NAME : E:\NLAU_FISM_SDK_july20\tempsensor_v1\IAR\nlau_fism_1_aug\NLAU_FISM_SDK\tempsensor_v1\IAR\Fism\Obj\mpu.r43
    *************************************************************************

  FILE NAME : E:\NLAU_FISM_SDK_july20\tempsensor_v1\IAR\nlau_fism_1_aug\NLAU_FISM_SDK\tempsensor_v1\IAR\Fism\Obj\mpy32.r43
    *************************************************************************

  FILE NAME : E:\NLAU_FISM_SDK_july20\tempsensor_v1\IAR\nlau_fism_1_aug\NLAU_FISM_SDK\tempsensor_v1\IAR\Fism\Obj\ota.r43
  PROGRAM MODULE, NAME : ota

  SEGMENTS IN THE MODULE
  ======================
DATA16_I
  Relative segment, address: 21D2 - 21D8 (0x7 bytes), align: 0
  Segment part 31.            Intra module refs:   ota_process
           ENTRY                   ADDRESS         REF BY
           =====                   =======         ======
           fw_version              21D2            device_ready_http (packet_format)
                                                   gsm_init (modem)
                                                   ota_sms (sms)
                                                   send_deviceready (modem)
    -------------------------------------------------------------------------
<CODE> 1 (was CODE)
  Relative segment, address: 000104D8 - 0001057B (0xa4 bytes), align: 1
  Segment part 34.
           ENTRY                   ADDRESS         REF BY
           =====                   =======         ======
           check_for_OTA           000104D8        events_health_check (events)
               calls direct
    -------------------------------------------------------------------------
<CODE,LOW_MEM> 1 (was CODE)
  Relative segment, address: 832E - 8627 (0x2fa bytes), align: 1
  Segment part 36.            Intra module refs:   check_for_OTA
           ENTRY                   ADDRESS         REF BY
           =====                   =======         ======
           ota_process             832E 
               calls direct
    -------------------------------------------------------------------------
<CODE> 1 (was CODE)
  Relative segment, address: 00012DCC - 00012DCF (0x4 bytes), align: 1
  Segment part 37.            Intra module refs:   ota_process
           LOCAL                   ADDRESS         
           =====                   =======         
           ?Subroutine5            00012DCC 
    -------------------------------------------------------------------------
<CODE> 1 (was CODE)
  Relative segment, address: 00012DD0 - 00012DD5 (0x6 bytes), align: 1
  Segment part 38.            Intra module refs:   ?Subroutine5
                                                   ota_process
    -------------------------------------------------------------------------
<CODE> 1 (was CODE)
  Relative segment, address: 000128AC - 000128B5 (0xa bytes), align: 1
  Segment part 39.            Intra module refs:   ota_process
           LOCAL                   ADDRESS         
           =====                   =======         
           ?Subroutine4            000128AC 
    -------------------------------------------------------------------------
<CODE> 1 (was CODE)
  Relative segment, address: 000128B6 - 000128BD (0x8 bytes), align: 1
  Segment part 40.            Intra module refs:   ?Subroutine4
                                                   ota_process
    -------------------------------------------------------------------------
<CODE> 1 (was CODE)
  Relative segment, address: 00012BB8 - 00012BC5 (0xe bytes), align: 1
  Segment part 41.            Intra module refs:   ota_process
           LOCAL                   ADDRESS         
           =====                   =======         
           ?Subroutine3            00012BB8 
    -------------------------------------------------------------------------
<CODE> 1 (was CODE)
  Relative segment, address: 00012DEA - 00012DF3 (0xa bytes), align: 1
  Segment part 42.            Intra module refs:   ota_process
           LOCAL                   ADDRESS         
           =====                   =======         
           ?Subroutine2            00012DEA 
    -------------------------------------------------------------------------
<CODE> 1 (was CODE)
  Relative segment, address: 00012CDE - 00012CE9 (0xc bytes), align: 1
  Segment part 43.            Intra module refs:   ota_process
           LOCAL                   ADDRESS         
           =====                   =======         
           ?Subroutine1            00012CDE 
    -------------------------------------------------------------------------
<CODE> 1 (was CODE)
  Relative segment, address: 00012F2A - 00012F31 (0x8 bytes), align: 1
  Segment part 44.            Intra module refs:   ota_process
           LOCAL                   ADDRESS         
           =====                   =======         
           ?Subroutine0            00012F2A 
    -------------------------------------------------------------------------
DATA16_ID
  Relative segment, address: 6A9E - 6AA4 (0x7 bytes), align: 0
  Segment part 32.            Intra module refs:   fw_version
    -------------------------------------------------------------------------
DATA16_C
  Relative segment, address: 637B - 6394 (0x1a bytes), align: 0
  Segment part 3.             Intra module refs:   check_for_OTA
    -------------------------------------------------------------------------
DATA16_C
  Relative segment, address: 6395 - 63A3 (0xf bytes), align: 0
  Segment part 5.             Intra module refs:   ota_process
    -------------------------------------------------------------------------
DATA16_C
  Relative segment, address: 63A4 - 63A8 (0x5 bytes), align: 0
  Segment part 6.             Intra module refs:   ota_process
    -------------------------------------------------------------------------
DATA16_C
  Relative segment, address: 63A9 - 63B7 (0xf bytes), align: 0
  Segment part 7.             Intra module refs:   ota_process
    -------------------------------------------------------------------------
DATA16_C
  Relative segment, address: 63B8 - 63D7 (0x20 bytes), align: 0
  Segment part 8.             Intra module refs:   ota_process
    -------------------------------------------------------------------------
DATA16_C
  Relative segment, address: 63D8 - 63F1 (0x1a bytes), align: 0
  Segment part 9.             Intra module refs:   ota_process
    -------------------------------------------------------------------------
DATA16_C
  Relative segment, address: 63F2 - 6400 (0xf bytes), align: 0
  Segment part 10.            Intra module refs:   ota_process
    -------------------------------------------------------------------------
DATA16_C
  Relative segment, address: 6401 - 640F (0xf bytes), align: 0
  Segment part 11.            Intra module refs:   ota_process
    -------------------------------------------------------------------------
DATA16_C
  Relative segment, address: 6410 - 6428 (0x19 bytes), align: 0
  Segment part 12.            Intra module refs:   ota_process
    -------------------------------------------------------------------------
DATA16_C
  Relative segment, address: 6429 - 643A (0x12 bytes), align: 0
  Segment part 13.            Intra module refs:   ota_process
    -------------------------------------------------------------------------
DATA16_C
  Relative segment, address: 643B - 643C (0x2 bytes), align: 0
  Segment part 14.            Intra module refs:   ota_process
    -------------------------------------------------------------------------
DATA16_C
  Relative segment, address: 643D - 6442 (0x6 bytes), align: 0
  Segment part 15.            Intra module refs:   ota_process
    -------------------------------------------------------------------------
DATA16_C
  Relative segment, address: 6443 - 6445 (0x3 bytes), align: 0
  Segment part 16.            Intra module refs:   Segment part 40
                                                   ota_process
    -------------------------------------------------------------------------
DATA16_C
  Relative segment, address: 6446 - 644A (0x5 bytes), align: 0
  Segment part 17.            Intra module refs:   ota_process
    -------------------------------------------------------------------------
DATA16_C
  Relative segment, address: 644B - 6460 (0x16 bytes), align: 0
  Segment part 18.            Intra module refs:   ota_process
    -------------------------------------------------------------------------
DATA16_C
  Relative segment, address: 6461 - 646A (0xa bytes), align: 0
  Segment part 19.            Intra module refs:   ota_process
    -------------------------------------------------------------------------
DATA16_C
  Relative segment, address: 646B - 646C (0x2 bytes), align: 0
  Segment part 20.            Intra module refs:   ota_process
    -------------------------------------------------------------------------
DATA16_C
  Relative segment, address: 646D - 646E (0x2 bytes), align: 0
  Segment part 21.            Intra module refs:   ota_process
    -------------------------------------------------------------------------
DATA16_C
  Relative segment, address: 646F - 648B (0x1d bytes), align: 0
  Segment part 22.            Intra module refs:   ota_process
    -------------------------------------------------------------------------
DATA16_C
  Relative segment, address: 648C - 648D (0x2 bytes), align: 0
  Segment part 23.            Intra module refs:   ota_process
    -------------------------------------------------------------------------
DATA16_C
  Relative segment, address: 648E - 648F (0x2 bytes), align: 0
  Segment part 24.            Intra module refs:   ota_process
    -------------------------------------------------------------------------
DATA16_C
  Relative segment, address: 6490 - 6494 (0x5 bytes), align: 0
  Segment part 25.            Intra module refs:   ota_process
    -------------------------------------------------------------------------
DATA16_C
  Relative segment, address: 6495 - 64A2 (0xe bytes), align: 0
  Segment part 26.            Intra module refs:   ota_process
    -------------------------------------------------------------------------
DATA16_C
  Relative segment, address: 64A3 - 64B5 (0x13 bytes), align: 0
  Segment part 27.            Intra module refs:   ota_process
    -------------------------------------------------------------------------
DATA16_C
  Relative segment, address: 64B6 - 64BE (0x9 bytes), align: 0
  Segment part 28.            Intra module refs:   ?Subroutine5
    -------------------------------------------------------------------------
DATA16_C
  Relative segment, address: 64BF - 64C9 (0xb bytes), align: 0
  Segment part 29.            Intra module refs:   ota_process
    -------------------------------------------------------------------------
DATA16_C
  Relative segment, address: 64CA - 64D4 (0xb bytes), align: 0
  Segment part 30.            Intra module refs:   ota_process

    *************************************************************************

  FILE NAME : E:\NLAU_FISM_SDK_july20\tempsensor_v1\IAR\nlau_fism_1_aug\NLAU_FISM_SDK\tempsensor_v1\IAR\Fism\Obj\packet_format.r43
  PROGRAM MODULE, NAME : packet_format

  SEGMENTS IN THE MODULE
  ======================
<CODE,LOW_MEM> 1 (was CODE)
  Relative segment, address: BFF8 - C0C3 (0xcc bytes), align: 1
  Segment part 36.
           ENTRY                   ADDRESS         REF BY
           =====                   =======         ======
           append_data_in_buffer   BFF8            event_subsample_temperature (events)
               calls direct
    -------------------------------------------------------------------------
<CODE> 1 (was CODE)
  Relative segment, address: 00012AF0 - 00012AFF (0x10 bytes), align: 1
  Segment part 37.            Intra module refs:   append_data_in_buffer
           LOCAL                   ADDRESS         
           =====                   =======         
           ?Subroutine3            00012AF0 
    -------------------------------------------------------------------------
<CODE,LOW_MEM> 1 (was CODE)
  Relative segment, address: C25C - C31D (0xc2 bytes), align: 1
  Segment part 38.            Intra module refs:   device_ready_http
           ENTRY                   ADDRESS         REF BY
           =====                   =======         ======
           send_data_to_server     C25C            read_alarm_packets (device_alarms)
                                                   send_data (modem)
               calls direct
    -------------------------------------------------------------------------
<CODE> 1 (was CODE)
  Relative segment, address: 00012F32 - 00012F39 (0x8 bytes), align: 1
  Segment part 39.            Intra module refs:   get_local_time
                                                   send_data_to_server
           LOCAL                   ADDRESS         
           =====                   =======         
           ?Subroutine9            00012F32 
    -------------------------------------------------------------------------
<CODE> 1 (was CODE)
  Relative segment, address: 00010C3C - 00010CBB (0x80 bytes), align: 1
  Segment part 40.
           ENTRY                   ADDRESS         REF BY
           =====                   =======         ======
           device_ready_http       00010C3C        events_health_check (events)
                                                   gsm_init (modem)
                                                   parse_diag_command (debug)
               calls direct
    -------------------------------------------------------------------------
<CODE> 1 (was CODE)
  Relative segment, address: 000121F8 - 00012219 (0x22 bytes), align: 1
  Segment part 41.            Intra module refs:   parse_input_value_for_sms
           ENTRY                   ADDRESS         REF BY
           =====                   =======         ======
           break_data              000121F8 
    -------------------------------------------------------------------------
<CODE,LOW_MEM> 1 (was CODE)
  Relative segment, address: 88FE - 8BAF (0x2b2 bytes), align: 1
  Segment part 42.
           ENTRY                   ADDRESS         REF BY
           =====                   =======         ======
           parse_input_value_for_sms
                                   88FE            temp_sampled_data (modem)
               calls direct
    -------------------------------------------------------------------------
<CODE> 1 (was CODE)
  Relative segment, address: 00012F4A - 00012F4B (0x2 bytes), align: 1
  Segment part 43.            Intra module refs:   parse_input_value_for_sms
           LOCAL                   ADDRESS         
           =====                   =======         
           ?Subroutine11           00012F4A 
    -------------------------------------------------------------------------
<CODE> 1 (was CODE)
  Relative segment, address: 00012F4C - 00012F51 (0x6 bytes), align: 1
  Segment part 44.            Intra module refs:   ?Subroutine11
                                                   parse_input_value_for_sms
    -------------------------------------------------------------------------
<CODE> 1 (was CODE)
  Relative segment, address: 00012F02 - 00012F09 (0x8 bytes), align: 1
  Segment part 45.            Intra module refs:   parse_input_value_for_sms
           LOCAL                   ADDRESS         
           =====                   =======         
           ?Subroutine10           00012F02 
    -------------------------------------------------------------------------
<CODE> 1 (was CODE)
  Relative segment, address: 00012CBA - 00012CC5 (0xc bytes), align: 1
  Segment part 46.            Intra module refs:   parse_input_value_for_sms
           LOCAL                   ADDRESS         
           =====                   =======         
           ?Subroutine8            00012CBA 
    -------------------------------------------------------------------------
<CODE> 1 (was CODE)
  Relative segment, address: 00012EF8 - 00012EF9 (0x2 bytes), align: 1
  Segment part 47.            Intra module refs:   parse_input_value_for_sms
           LOCAL                   ADDRESS         
           =====                   =======         
           ?Subroutine7            00012EF8 
    -------------------------------------------------------------------------
<CODE> 1 (was CODE)
  Relative segment, address: 00012EFA - 00012F01 (0x8 bytes), align: 1
  Segment part 48.            Intra module refs:   ?Subroutine7
                                                   get_local_time
    -------------------------------------------------------------------------
<CODE> 1 (was CODE)
  Relative segment, address: 00012CD2 - 00012CDD (0xc bytes), align: 1
  Segment part 49.            Intra module refs:   parse_input_value_for_sms
           LOCAL                   ADDRESS         
           =====                   =======         
           ?Subroutine6            00012CD2 
    -------------------------------------------------------------------------
<CODE> 1 (was CODE)
  Relative segment, address: 00012F72 - 00012F79 (0x8 bytes), align: 1
  Segment part 50.            Intra module refs:   parse_input_value_for_sms
           LOCAL                   ADDRESS         
           =====                   =======         
           ?Subroutine5            00012F72 
    -------------------------------------------------------------------------
<CODE> 1 (was CODE)
  Relative segment, address: 00012A80 - 00012A83 (0x4 bytes), align: 1
  Segment part 51.            Intra module refs:   parse_input_value_for_sms
           LOCAL                   ADDRESS         
           =====                   =======         
           ?Subroutine1            00012A80 
    -------------------------------------------------------------------------
<CODE> 1 (was CODE)
  Relative segment, address: 00012A84 - 00012A8F (0xc bytes), align: 1
  Segment part 52.            Intra module refs:   ?Subroutine1
                                                   parse_input_value_for_sms
    -------------------------------------------------------------------------
<CODE,LOW_MEM> 1 (was CODE)
  Relative segment, address: B3A8 - B4D3 (0x12c bytes), align: 1
  Segment part 33.            Intra module refs:   append_data_in_buffer
           ENTRY                   ADDRESS         REF BY
           =====                   =======         ======
           get_local_time          B3A8            check_battery_alarm (device_alarms)
                                                   check_sensor_alarm (device_alarms)
                                                   gsm_init (modem)
               calls direct
    -------------------------------------------------------------------------
<CODE> 1 (was CODE)
  Relative segment, address: 00012646 - 0001265B (0x16 bytes), align: 1
  Segment part 34.            Intra module refs:   get_local_time
           LOCAL                   ADDRESS         
           =====                   =======         
           ?Subroutine4            00012646 
    -------------------------------------------------------------------------
<CODE> 1 (was CODE)
  Relative segment, address: 00012F8A - 00012F91 (0x8 bytes), align: 1
  Segment part 35.            Intra module refs:   get_local_time
           LOCAL                   ADDRESS         
           =====                   =======         
           ?Subroutine2            00012F8A 
    -------------------------------------------------------------------------
<CODE> 1 (was CODE)
  Relative segment, address: 00012722 - 00012737 (0x16 bytes), align: 1
  Segment part 32.            Intra module refs:   get_local_time
           ENTRY                   ADDRESS         REF BY
           =====                   =======         ======
           convert_utc_time        00012722 
               calls direct
    -------------------------------------------------------------------------
<CODE> 1 (was CODE)
  Relative segment, address: 0001057C - 0001061F (0xa4 bytes), align: 1
  Segment part 30.            Intra module refs:   convert_utc_time
           ENTRY                   ADDRESS         REF BY
           =====                   =======         ======
           add_sec_in_date_time    0001057C 
               calls direct
    -------------------------------------------------------------------------
<CODE> 1 (was CODE)
  Relative segment, address: 00012D32 - 00012D3D (0xc bytes), align: 1
  Segment part 31.            Intra module refs:   add_sec_in_date_time
           LOCAL                   ADDRESS         
           =====                   =======         
           ?Subroutine0            00012D32 
    -------------------------------------------------------------------------
DATA16_C
  Relative segment, address: 64D5 - 64D8 (0x4 bytes), align: 0
  Segment part 2.             Intra module refs:   append_data_in_buffer
    -------------------------------------------------------------------------
DATA16_C
  Relative segment, address: 64D9 - 64F9 (0x21 bytes), align: 0
  Segment part 3.             Intra module refs:   append_data_in_buffer
    -------------------------------------------------------------------------
DATA16_C
  Relative segment, address: 64FA - 652B (0x32 bytes), align: 0
  Segment part 4.             Intra module refs:   append_data_in_buffer
    -------------------------------------------------------------------------
DATA16_C
  Relative segment, address: 652C - 6542 (0x17 bytes), align: 0
  Segment part 5.             Intra module refs:   send_data_to_server
    -------------------------------------------------------------------------
DATA16_C
  Relative segment, address: 6543 - 654D (0xb bytes), align: 0
  Segment part 6.             Intra module refs:   send_data_to_server
    -------------------------------------------------------------------------
DATA16_C
  Relative segment, address: 654E - 6550 (0x3 bytes), align: 0
  Segment part 7.             Intra module refs:   send_data_to_server
    -------------------------------------------------------------------------
DATA16_C
  Relative segment, address: 6551 - 6562 (0x12 bytes), align: 0
  Segment part 8.             Intra module refs:   send_data_to_server
    -------------------------------------------------------------------------
DATA16_C
  Relative segment, address: 6563 - 6564 (0x2 bytes), align: 0
  Segment part 9.             Intra module refs:   send_data_to_server
    -------------------------------------------------------------------------
DATA16_C
  Relative segment, address: 6565 - 6577 (0x13 bytes), align: 0
  Segment part 10.            Intra module refs:   send_data_to_server
    -------------------------------------------------------------------------
DATA16_C
  Relative segment, address: 6578 - 658F (0x18 bytes), align: 0
  Segment part 11.            Intra module refs:   send_data_to_server
    -------------------------------------------------------------------------
DATA16_C
  Relative segment, address: 6590 - 65A1 (0x12 bytes), align: 0
  Segment part 12.            Intra module refs:   send_data_to_server
    -------------------------------------------------------------------------
DATA16_C
  Relative segment, address: 65A2 - 6647 (0xa6 bytes), align: 0
  Segment part 13.            Intra module refs:   device_ready_http
    -------------------------------------------------------------------------
DATA16_C
  Relative segment, address: 6648 - 667F (0x38 bytes), align: 0
  Segment part 14.            Intra module refs:   device_ready_http
    -------------------------------------------------------------------------
DATA16_C
  Relative segment, address: 6680 - 6684 (0x5 bytes), align: 0
  Segment part 15.            Intra module refs:   ?Subroutine4
                                                   device_ready_http
    -------------------------------------------------------------------------
DATA16_C
  Relative segment, address: 6685 - 6687 (0x3 bytes), align: 0
  Segment part 16.            Intra module refs:   parse_input_value_for_sms
    -------------------------------------------------------------------------
DATA16_C
  Relative segment, address: 6688 - 668B (0x4 bytes), align: 0
  Segment part 17.            Intra module refs:   parse_input_value_for_sms
    -------------------------------------------------------------------------
DATA16_C
  Relative segment, address: 668C - 6695 (0xa bytes), align: 0
  Segment part 18.            Intra module refs:   parse_input_value_for_sms
    -------------------------------------------------------------------------
DATA16_C
  Relative segment, address: 6696 - 669F (0xa bytes), align: 0
  Segment part 19.            Intra module refs:   parse_input_value_for_sms
    -------------------------------------------------------------------------
DATA16_C
  Relative segment, address: 66A0 - 66A9 (0xa bytes), align: 0
  Segment part 20.            Intra module refs:   parse_input_value_for_sms
    -------------------------------------------------------------------------
DATA16_C
  Relative segment, address: 66AA - 66AE (0x5 bytes), align: 0
  Segment part 21.            Intra module refs:   parse_input_value_for_sms
    -------------------------------------------------------------------------
DATA16_C
  Relative segment, address: 66AF - 66CB (0x1d bytes), align: 0
  Segment part 22.            Intra module refs:   parse_input_value_for_sms
    -------------------------------------------------------------------------
DATA16_C
  Relative segment, address: 66CC - 66CD (0x2 bytes), align: 0
  Segment part 23.            Intra module refs:   parse_input_value_for_sms
    -------------------------------------------------------------------------
DATA16_C
  Relative segment, address: 66CE - 66CF (0x2 bytes), align: 0
  Segment part 24.            Intra module refs:   parse_input_value_for_sms
    -------------------------------------------------------------------------
DATA16_C
  Relative segment, address: 66D0 - 66DA (0xb bytes), align: 0
  Segment part 25.            Intra module refs:   ?Subroutine4
    -------------------------------------------------------------------------
DATA16_C
  Relative segment, address: 66DB - 66DC (0x2 bytes), align: 0
  Segment part 26.            Intra module refs:   get_local_time
    -------------------------------------------------------------------------
DATA16_C
  Relative segment, address: 66DD - 66E8 (0xc bytes), align: 0
  Segment part 27.            Intra module refs:   get_local_time
    -------------------------------------------------------------------------
DATA16_C
  Relative segment, address: 66E9 - 66F3 (0xb bytes), align: 0
  Segment part 28.            Intra module refs:   get_local_time

    *************************************************************************

  FILE NAME : E:\NLAU_FISM_SDK_july20\tempsensor_v1\IAR\nlau_fism_1_aug\NLAU_FISM_SDK\tempsensor_v1\IAR\Fism\Obj\pmm.r43
  PROGRAM MODULE, NAME : pmm

  SEGMENTS IN THE MODULE
  ======================
<CODE> 1 (was CODE)
  Relative segment, address: 000124BE - 000124C3 (0x6 bytes), align: 1
  Segment part 7.             Intra module refs:   PMM_trigBOR
           LOCAL                   ADDRESS         
           =====                   =======         
           ?Subroutine0            000124BE 
    -------------------------------------------------------------------------
<CODE> 1 (was CODE)
  Relative segment, address: 000124C4 - 000124CB (0x8 bytes), align: 1
  Segment part 8.             Intra module refs:   PMM_trigBOR
           LOCAL                   ADDRESS         
           =====                   =======         
           ?Subroutine1            000124C4 
    -------------------------------------------------------------------------
<CODE> 1 (was CODE)
  Relative segment, address: 000124CC - 000124D7 (0xc bytes), align: 1
  Segment part 11.
           ENTRY                   ADDRESS         REF BY
           =====                   =======         ======
           PMM_trigBOR             000124CC        event_reboot_system (events)
                                                   i2c_temperature (temperature)
                                                   parse_diag_command (debug)

    *************************************************************************

  FILE NAME : E:\NLAU_FISM_SDK_july20\tempsensor_v1\IAR\nlau_fism_1_aug\NLAU_FISM_SDK\tempsensor_v1\IAR\Fism\Obj\ram.r43
    *************************************************************************

  FILE NAME : E:\NLAU_FISM_SDK_july20\tempsensor_v1\IAR\nlau_fism_1_aug\NLAU_FISM_SDK\tempsensor_v1\IAR\Fism\Obj\ref_a.r43
    *************************************************************************

  FILE NAME : E:\NLAU_FISM_SDK_july20\tempsensor_v1\IAR\nlau_fism_1_aug\NLAU_FISM_SDK\tempsensor_v1\IAR\Fism\Obj\rtc.r43
  PROGRAM MODULE, NAME : rtc

  SEGMENTS IN THE MODULE
  ======================
DATA16_AN
  Relative segment, address: 04AE - 04AF (0x2 bytes), align: 0
  Segment part 4. ROOT        Intra module refs:   RTC_C_ISR
           ENTRY                   ADDRESS         REF BY
           =====                   =======         ======
           _A_RTCIV_L              04AE 
           LOCAL                   ADDRESS         
           =====                   =======         
           RTCIV                   04AE 
           RTCIV_H                 04AF 
           RTCIV_L                 04AE 
    -------------------------------------------------------------------------
DATA16_Z
  Relative segment, address: 224C - 2253 (0x8 bytes), align: 1
  Segment part 6.             Intra module refs:   rtc_getlocal
                                                   rtc_init
           ENTRY                   ADDRESS         REF BY
           =====                   =======         ======
           g_rtcCalendarTime       224C 
    -------------------------------------------------------------------------
DATA16_Z
  Relative segment, address: 2254 - 2257 (0x4 bytes), align: 1
  Segment part 8.             Intra module refs:   RTC_C_ISR
           ENTRY                   ADDRESS         REF BY
           =====                   =======         ======
           iMinuteTick             2254 
    -------------------------------------------------------------------------
DATA16_Z
  Relative segment, address: 2258 - 225B (0x4 bytes), align: 1
  Segment part 9.             Intra module refs:   RTC_C_ISR
                                                   led_blink
                                                   rtc_get_second_tick
           ENTRY                   ADDRESS         REF BY
           =====                   =======         ======
           iSecondTick             2258 
    -------------------------------------------------------------------------
DATA16_I
  Relative segment, address: 213C - 213F (0x4 bytes), align: 1
  Segment part 10.            Intra module refs:   RTC_C_ISR
                                                   rtc_update_time
           ENTRY                   ADDRESS         REF BY
           =====                   =======         ======
           iDeadCountdown          213C 
    -------------------------------------------------------------------------
<CODE> 1 (was CODE)
  Relative segment, address: 00012E6C - 00012E75 (0xa bytes), align: 1
  Segment part 13.
           ENTRY                   ADDRESS         REF BY
           =====                   =======         ======
           rtc_get_second_tick     00012E6C        ?Subroutine1 (events)
                                                   ?Subroutine3 (events)
                                                   event_force_event_by_id (events)
    -------------------------------------------------------------------------
<CODE> 1 (was CODE)
  Relative segment, address: 0001281C - 0001282D (0x12 bytes), align: 1
  Segment part 18.
           ENTRY                   ADDRESS         REF BY
           =====                   =======         ======
           rtc_update_time         0001281C        main (main_system)
               calls direct
    -------------------------------------------------------------------------
<CODE> 1 (was CODE)
  Relative segment, address: 0001120A - 0001126D (0x64 bytes), align: 1
  Segment part 19.
           ENTRY                   ADDRESS         REF BY
           =====                   =======         ======
           rtc_init                0001120A        main (main_system)
               calls direct
    -------------------------------------------------------------------------
<CODE> 1 (was CODE)
  Relative segment, address: 000111A4 - 00011209 (0x66 bytes), align: 1
  Segment part 17.            Intra module refs:   rtc_update_time
           ENTRY                   ADDRESS         REF BY
           =====                   =======         ======
           rtc_getlocal            000111A4 
               calls direct
    -------------------------------------------------------------------------
<CODE> 1 (was CODE)
  Relative segment, address: 00010FFE - 00011069 (0x6c bytes), align: 1
  Segment part 22.            Intra module refs:   RTC_C_ISR
           ENTRY                   ADDRESS         REF BY
           =====                   =======         ======
           led_blink               00010FFE 
               calls direct
    -------------------------------------------------------------------------
<CODE> 1 (was CODE)
  Relative segment, address: 00012E94 - 00012E9D (0xa bytes), align: 1
  Segment part 21.
           ENTRY                   ADDRESS         REF BY
           =====                   =======         ======
           rtc_getUTCsecs          00012E94        ?Subroutine3 (packet_format)
                                                   alarm_packet (device_alarms)
                                                   alarm_test_sensor (alarms)
                                                   check_battery_alarm (device_alarms)
                                                   check_sensor_alarm (device_alarms)
                                                   get_local_time (packet_format)
                                                   state_battery_level (state_machine)
    -------------------------------------------------------------------------
ISR_CODE
  Relative segment, address: 6BB2 - 6C29 (0x78 bytes), align: 1
  Segment part 23.
           ENTRY                   ADDRESS         REF BY
           =====                   =======         ======
           RTC_C_ISR               6BB2            main (main_system)
               interrupt function
               calls direct
    -------------------------------------------------------------------------
DATA16_ID
  Relative segment, address: 6A08 - 6A0B (0x4 bytes), align: 1
  Segment part 11.            Intra module refs:   iDeadCountdown

    *************************************************************************

  FILE NAME : E:\NLAU_FISM_SDK_july20\tempsensor_v1\IAR\nlau_fism_1_aug\NLAU_FISM_SDK\tempsensor_v1\IAR\Fism\Obj\rtc_b.r43
    *************************************************************************

  FILE NAME : E:\NLAU_FISM_SDK_july20\tempsensor_v1\IAR\nlau_fism_1_aug\NLAU_FISM_SDK\tempsensor_v1\IAR\Fism\Obj\rtc_c.r43
  PROGRAM MODULE, NAME : rtc_c

  SEGMENTS IN THE MODULE
  ======================
<CODE,LOW_MEM> 1 (was CODE)
  Relative segment, address: B5F4 - B5FF (0xc bytes), align: 1
  Segment part 3.
           ENTRY                   ADDRESS         REF BY
           =====                   =======         ======
           RTC_C_startClock        B5F4            rtc_init (rtc)
    -------------------------------------------------------------------------
<CODE,LOW_MEM> 1 (was CODE)
  Relative segment, address: B600 - B60D (0xe bytes), align: 1
  Segment part 6.             Intra module refs:   RTC_C_setCalendarEvent
                                                   RTC_C_startClock
           LOCAL                   ADDRESS         
           =====                   =======         
           ?Subroutine2            B600 
    -------------------------------------------------------------------------
<CODE,LOW_MEM> 1 (was CODE)
  Relative segment, address: B60E - B613 (0x6 bytes), align: 1
  Segment part 8.             Intra module refs:   RTC_C_setCalendarEvent
                                                   RTC_C_startClock
           LOCAL                   ADDRESS         
           =====                   =======         
           ?Subroutine1            B60E 
    -------------------------------------------------------------------------
<CODE,LOW_MEM> 1 (was CODE)
  Relative segment, address: B614 - B66F (0x5c bytes), align: 1
  Segment part 12.
           ENTRY                   ADDRESS         REF BY
           =====                   =======         ======
           RTC_C_initCalendar      B614            rtc_init (rtc)
    -------------------------------------------------------------------------
<CODE,LOW_MEM> 1 (was CODE)
  Relative segment, address: B670 - B677 (0x8 bytes), align: 1
  Segment part 13.            Intra module refs:   RTC_C_initCalendar
           LOCAL                   ADDRESS         
           =====                   =======         
           ?Subroutine5            B670 
    -------------------------------------------------------------------------
<CODE,LOW_MEM> 1 (was CODE)
  Relative segment, address: B678 - B685 (0xe bytes), align: 1
  Segment part 14.            Intra module refs:   RTC_C_initCalendar
           LOCAL                   ADDRESS         
           =====                   =======         
           ?Subroutine4            B678 
    -------------------------------------------------------------------------
<CODE,LOW_MEM> 1 (was CODE)
  Relative segment, address: B686 - B6F5 (0x70 bytes), align: 1
  Segment part 15.
           ENTRY                   ADDRESS         REF BY
           =====                   =======         ======
           RTC_C_getCalendarTime   B686            rtc_getlocal (rtc)
    -------------------------------------------------------------------------
<CODE,LOW_MEM> 1 (was CODE)
  Relative segment, address: B6F6 - B707 (0x12 bytes), align: 1
  Segment part 18.
           ENTRY                   ADDRESS         REF BY
           =====                   =======         ======
           RTC_C_setCalendarEvent
                                   B6F6            rtc_init (rtc)
    -------------------------------------------------------------------------
<CODE,LOW_MEM> 1 (was CODE)
  Relative segment, address: B708 - B713 (0xc bytes), align: 1
  Segment part 28.            Intra module refs:   RTC_C_clearInterrupt
                                                   RTC_C_enableInterrupt
           LOCAL                   ADDRESS         
           =====                   =======         
           ?Subroutine3            B708 
    -------------------------------------------------------------------------
<CODE> 1 (was CODE)
  Relative segment, address: 00011FAC - 00011FD9 (0x2e bytes), align: 1
  Segment part 27.
           ENTRY                   ADDRESS         REF BY
           =====                   =======         ======
           RTC_C_enableInterrupt   00011FAC        rtc_init (rtc)
    -------------------------------------------------------------------------
<CODE> 1 (was CODE)
  Relative segment, address: 00011EF2 - 00011F21 (0x30 bytes), align: 1
  Segment part 31.
           ENTRY                   ADDRESS         REF BY
           =====                   =======         ======
           RTC_C_clearInterrupt    00011EF2        rtc_init (rtc)

    *************************************************************************

  FILE NAME : E:\NLAU_FISM_SDK_july20\tempsensor_v1\IAR\nlau_fism_1_aug\NLAU_FISM_SDK\tempsensor_v1\IAR\Fism\Obj\sfr.r43
    *************************************************************************

  FILE NAME : E:\NLAU_FISM_SDK_july20\tempsensor_v1\IAR\nlau_fism_1_aug\NLAU_FISM_SDK\tempsensor_v1\IAR\Fism\Obj\sms.r43
  PROGRAM MODULE, NAME : sms

  SEGMENTS IN THE MODULE
  ======================
DATA16_Z
  Relative segment, address: 2914 - 295E (0x4b bytes), align: 0
  Segment part 37.            Intra module refs:   ota_sms
           ENTRY                   ADDRESS         REF BY
           =====                   =======         ======
           ota_url                 2914            ota_process (ota)
    -------------------------------------------------------------------------
DATA16_Z
  Relative segment, address: 295F - 2968 (0xa bytes), align: 0
  Segment part 38.            Intra module refs:   ota_sms
           ENTRY                   ADDRESS         REF BY
           =====                   =======         ======
           image_crc               295F            ota_process (ota)
    -------------------------------------------------------------------------
<CODE> 1 (was CODE)
  Relative segment, address: 00010D38 - 00010DB1 (0x7a bytes), align: 1
  Segment part 44.            Intra module refs:   dev_sms_cofig
           ENTRY                   ADDRESS         REF BY
           =====                   =======         ======
           totalsms_count          00010D38 
               calls direct
    -------------------------------------------------------------------------
<CODE> 1 (was CODE)
  Relative segment, address: 00012D6E - 00012D79 (0xc bytes), align: 1
  Segment part 45.            Intra module refs:   totalsms_count
           LOCAL                   ADDRESS         
           =====                   =======         
           ?Subroutine1            00012D6E 
    -------------------------------------------------------------------------
<CODE> 1 (was CODE)
  Relative segment, address: 00012BF0 - 00012BFD (0xe bytes), align: 1
  Segment part 46.            Intra module refs:   totalsms_count
           LOCAL                   ADDRESS         
           =====                   =======         
           ?Subroutine0            00012BF0 
    -------------------------------------------------------------------------
<CODE> 1 (was CODE)
  Relative segment, address: 0001292A - 0001293B (0x12 bytes), align: 1
  Segment part 53.            Intra module refs:   dev_sms_cofig
           ENTRY                   ADDRESS         REF BY
           =====                   =======         ======
           dev_sms_parsing         0001292A 
               calls direct
    -------------------------------------------------------------------------
<CODE,LOW_MEM> 1 (was CODE)
  Relative segment, address: C0C4 - C18F (0xcc bytes), align: 1
  Segment part 55.
           ENTRY                   ADDRESS         REF BY
           =====                   =======         ======
           dev_sms_cofig           C0C4            event_SIM_check_incoming_msgs (events)
               calls direct
    -------------------------------------------------------------------------
<CODE> 1 (was CODE)
  Relative segment, address: 00012D92 - 00012D9D (0xc bytes), align: 1
  Segment part 56.            Intra module refs:   dev_sms_cofig
           LOCAL                   ADDRESS         
           =====                   =======         
           ?Subroutine5            00012D92 
    -------------------------------------------------------------------------
<CODE> 1 (was CODE)
  Relative segment, address: 00012EB2 - 00012EBB (0xa bytes), align: 1
  Segment part 59.            Intra module refs:   delete_sms
                                                   dev_sms_cofig
           LOCAL                   ADDRESS         
           =====                   =======         
           ?Subroutine6            00012EB2 
    -------------------------------------------------------------------------
<CODE> 1 (was CODE)
  Relative segment, address: 00010EA4 - 00010F19 (0x76 bytes), align: 1
  Segment part 57.
           ENTRY                   ADDRESS         REF BY
           =====                   =======         ======
           gprs_config_dev         00010EA4        events_health_check (events)
               calls direct
    -------------------------------------------------------------------------
<CODE,LOW_MEM> 1 (was CODE)
  Relative segment, address: BD4A - BE33 (0xea bytes), align: 1
  Segment part 54.            Intra module refs:   dev_sms_cofig
           ENTRY                   ADDRESS         REF BY
           =====                   =======         ======
           ota_sms                 BD4A            parse_diag_command (debug)
               calls direct
    -------------------------------------------------------------------------
<CODE> 1 (was CODE)
  Relative segment, address: 0001225A - 00012279 (0x20 bytes), align: 1
  Segment part 58.
           ENTRY                   ADDRESS         REF BY
           =====                   =======         ======
           delete_sms              0001225A        check_for_OTA (ota)
                                                   ota_process (ota)
               calls direct
    -------------------------------------------------------------------------
DATA16_C
  Relative segment, address: 66F4 - 66FE (0xb bytes), align: 0
  Segment part 2.             Intra module refs:   totalsms_count
    -------------------------------------------------------------------------
DATA16_C
  Relative segment, address: 66FF - 6703 (0x5 bytes), align: 0
  Segment part 3.             Intra module refs:   ?Subroutine6
                                                   delete_sms
                                                   gprs_config_dev
                                                   totalsms_count
    -------------------------------------------------------------------------
DATA16_C
  Relative segment, address: 6704 - 670B (0x8 bytes), align: 0
  Segment part 4.             Intra module refs:   totalsms_count
    -------------------------------------------------------------------------
DATA16_C
  Relative segment, address: 670C - 670D (0x2 bytes), align: 0
  Segment part 5.             Intra module refs:   ?Subroutine0
                                                   ota_sms
                                                   totalsms_count
    -------------------------------------------------------------------------
DATA16_C
  Relative segment, address: 670E - 671A (0xd bytes), align: 0
  Segment part 6.             Intra module refs:   totalsms_count
    -------------------------------------------------------------------------
DATA16_C
  Relative segment, address: 671B - 671D (0x3 bytes), align: 0
  Segment part 7.             Intra module refs:   ?Subroutine1
    -------------------------------------------------------------------------
DATA16_C
  Relative segment, address: 671E - 6732 (0x15 bytes), align: 0
  Segment part 8.             Intra module refs:   totalsms_count
    -------------------------------------------------------------------------
DATA16_C
  Relative segment, address: 6733 - 673D (0xb bytes), align: 0
  Segment part 21.            Intra module refs:   dev_sms_cofig
    -------------------------------------------------------------------------
DATA16_C
  Relative segment, address: 673E - 6745 (0x8 bytes), align: 0
  Segment part 22.            Intra module refs:   dev_sms_cofig
    -------------------------------------------------------------------------
DATA16_C
  Relative segment, address: 6746 - 6754 (0xf bytes), align: 0
  Segment part 23.            Intra module refs:   dev_sms_cofig
    -------------------------------------------------------------------------
DATA16_C
  Relative segment, address: 6755 - 6761 (0xd bytes), align: 0
  Segment part 24.            Intra module refs:   dev_sms_cofig
    -------------------------------------------------------------------------
DATA16_C
  Relative segment, address: 6762 - 676F (0xe bytes), align: 0
  Segment part 25.            Intra module refs:   delete_sms
                                                   dev_sms_cofig
    -------------------------------------------------------------------------
DATA16_C
  Relative segment, address: 6770 - 67BB (0x4c bytes), align: 0
  Segment part 26.            Intra module refs:   gprs_config_dev
    -------------------------------------------------------------------------
DATA16_C
  Relative segment, address: 67BC - 67CD (0x12 bytes), align: 0
  Segment part 27.            Intra module refs:   gprs_config_dev
    -------------------------------------------------------------------------
DATA16_C
  Relative segment, address: 67CE - 67D2 (0x5 bytes), align: 0
  Segment part 28.            Intra module refs:   gprs_config_dev
    -------------------------------------------------------------------------
DATA16_C
  Relative segment, address: 67D3 - 67E0 (0xe bytes), align: 0
  Segment part 29.            Intra module refs:   gprs_config_dev
    -------------------------------------------------------------------------
DATA16_C
  Relative segment, address: 67E1 - 67EA (0xa bytes), align: 0
  Segment part 30.            Intra module refs:   gprs_config_dev
    -------------------------------------------------------------------------
DATA16_C
  Relative segment, address: 67EB - 67EE (0x4 bytes), align: 0
  Segment part 31.            Intra module refs:   ota_sms
    -------------------------------------------------------------------------
DATA16_C
  Relative segment, address: 67EF - 67F0 (0x2 bytes), align: 0
  Segment part 32.            Intra module refs:   ota_sms
    -------------------------------------------------------------------------
DATA16_C
  Relative segment, address: 67F1 - 67F5 (0x5 bytes), align: 0
  Segment part 33.            Intra module refs:   ota_sms
    -------------------------------------------------------------------------
DATA16_C
  Relative segment, address: 67F6 - 6808 (0x13 bytes), align: 0
  Segment part 34.            Intra module refs:   ota_sms
    -------------------------------------------------------------------------
DATA16_C
  Relative segment, address: 6809 - 681A (0x12 bytes), align: 0
  Segment part 35.            Intra module refs:   delete_sms

    *************************************************************************

  FILE NAME : E:\NLAU_FISM_SDK_july20\tempsensor_v1\IAR\nlau_fism_1_aug\NLAU_FISM_SDK\tempsensor_v1\IAR\Fism\Obj\spi_flash.r43
  PROGRAM MODULE, NAME : spi_flash

  SEGMENTS IN THE MODULE
  ======================
DATA16_AN
  Relative segment, address: 0262 - 0263 (0x2 bytes), align: 0
  Segment part 3. ROOT        Intra module refs:   SPI_Init
                                                   W25Q16_BUSY
                                                   W25Q16_Read
                                                   W25Q16_Sector_Erase
                                                   W25Q16_Write
                                                   W25q16_Erasure
                                                   Write_Enable
                                                   extFlashPowerDown
                                                   extFlashPowerStandby
           ENTRY                   ADDRESS         REF BY
           =====                   =======         ======
           _A_PDOUT_L              0262 
           LOCAL                   ADDRESS         
           =====                   =======         
           PDOUT                   0262 
           PDOUT_H                 0263 
           PDOUT_L                 0262 
    -------------------------------------------------------------------------
DATA16_AN
  Relative segment, address: 0264 - 0265 (0x2 bytes), align: 0
  Segment part 4. ROOT        Intra module refs:   SPI_Init
           ENTRY                   ADDRESS         REF BY
           =====                   =======         ======
           _A_PDDIR_L              0264 
           LOCAL                   ADDRESS         
           =====                   =======         
           PDDIR                   0264 
           PDDIR_H                 0265 
           PDDIR_L                 0264 
    -------------------------------------------------------------------------
DATA16_AN
  Relative segment, address: 026A - 026B (0x2 bytes), align: 0
  Segment part 5. ROOT        Intra module refs:   SPI_Init
           ENTRY                   ADDRESS         REF BY
           =====                   =======         ======
           _A_PDSEL0_L             026A 
           LOCAL                   ADDRESS         
           =====                   =======         
           PDSEL0                  026A 
           PDSEL0_H                026B 
           PDSEL0_L                026A 
    -------------------------------------------------------------------------
DATA16_AN
  Relative segment, address: 026C - 026D (0x2 bytes), align: 0
  Segment part 6. ROOT        Intra module refs:   SPI_Init
           ENTRY                   ADDRESS         REF BY
           =====                   =======         ======
           _A_PDSEL1_L             026C 
           LOCAL                   ADDRESS         
           =====                   =======         
           PDSEL1                  026C 
           PDSEL1_H                026D 
           PDSEL1_L                026C 
    -------------------------------------------------------------------------
DATA16_AN
  Relative segment, address: 05A0 - 05A1 (0x2 bytes), align: 0
  Segment part 7. ROOT        Intra module refs:   fram_write
           ENTRY                   ADDRESS         REF BY
           =====                   =======         ======
           _A_MPUCTL0_L            05A0 
           LOCAL                   ADDRESS         
           =====                   =======         
           MPUCTL0                 05A0 
           MPUCTL0_H               05A1 
           MPUCTL0_L               05A0 
    -------------------------------------------------------------------------
DATA16_AN
  Relative segment, address: 05A8 - 05A9 (0x2 bytes), align: 0
  Segment part 8. ROOT        Intra module refs:   fram_write
           ENTRY                   ADDRESS         REF BY
           =====                   =======         ======
           _A_MPUSAM_L             05A8 
           LOCAL                   ADDRESS         
           =====                   =======         
           MPUSAM                  05A8 
           MPUSAM_H                05A9 
           MPUSAM_L                05A8 
    -------------------------------------------------------------------------
DATA16_AN
  Relative segment, address: 06C0 - 06C1 (0x2 bytes), align: 0
  Segment part 9. ROOT        Intra module refs:   SPI_Init
           ENTRY                   ADDRESS         REF BY
           =====                   =======         ======
           _A_UCB2CTLW0_L          06C0 
           LOCAL                   ADDRESS         
           =====                   =======         
           UCB2CTLW0               06C0 
           UCB2CTLW0_H             06C1 
           UCB2CTLW0_L             06C0 
    -------------------------------------------------------------------------
DATA16_AN
  Relative segment, address: 06C6 - 06C7 (0x2 bytes), align: 0
  Segment part 10. ROOT       Intra module refs:   SPI_Init
           ENTRY                   ADDRESS         REF BY
           =====                   =======         ======
           _A_UCB2BRW_L            06C6 
           LOCAL                   ADDRESS         
           =====                   =======         
           UCB2BRW                 06C6 
           UCB2BRW_H               06C7 
           UCB2BRW_L               06C6 
    -------------------------------------------------------------------------
DATA16_AN
  Relative segment, address: 06CC - 06CD (0x2 bytes), align: 0
  Segment part 11. ROOT       Intra module refs:   SPI_Read
                                                   SPI_Write
           ENTRY                   ADDRESS         REF BY
           =====                   =======         ======
           _A_UCB2RXBUF_L          06CC 
           LOCAL                   ADDRESS         
           =====                   =======         
           UCB2RXBUF               06CC 
           UCB2RXBUF_H             06CD 
           UCB2RXBUF_L             06CC 
    -------------------------------------------------------------------------
DATA16_AN
  Relative segment, address: 06CE - 06CF (0x2 bytes), align: 0
  Segment part 12. ROOT       Intra module refs:   SPI_Read
                                                   SPI_Write
           ENTRY                   ADDRESS         REF BY
           =====                   =======         ======
           _A_UCB2TXBUF_L          06CE 
           LOCAL                   ADDRESS         
           =====                   =======         
           UCB2TXBUF               06CE 
           UCB2TXBUF_H             06CF 
           UCB2TXBUF_L             06CE 
    -------------------------------------------------------------------------
DATA16_AN
  Relative segment, address: 06EC - 06ED (0x2 bytes), align: 0
  Segment part 13. ROOT       Intra module refs:   SPI_Read
                                                   SPI_Write
           ENTRY                   ADDRESS         REF BY
           =====                   =======         ======
           _A_UCB2IFG_L            06EC 
           LOCAL                   ADDRESS         
           =====                   =======         
           UCB2IFG                 06EC 
           UCB2IFG_H               06ED 
           UCB2IFG_L               06EC 
    -------------------------------------------------------------------------
DATA16_AN
  Relative segment, address: 06EE - 06EF (0x2 bytes), align: 0
  Segment part 14. ROOT 
           ENTRY                   ADDRESS         REF BY
           =====                   =======         ======
           _A_UCB2IV_L             06EE 
           LOCAL                   ADDRESS         
           =====                   =======         
           UCB2IV                  06EE 
           UCB2IV_H                06EF 
           UCB2IV_L                06EE 
    -------------------------------------------------------------------------
DATA16_Z
  Relative segment, address: 2969 - 2978 (0x10 bytes), align: 0
  Segment part 29.            Intra module refs:   read_indexes
                                                   read_packets
                                                   save_packet
           ENTRY                   ADDRESS         REF BY
           =====                   =======         ======
           debug_tmp_buff          2969 
    -------------------------------------------------------------------------
DATA16_Z
  Relative segment, address: 2979 - 2A78 (0x100 bytes), align: 0
  Segment part 30.            Intra module refs:   ?Subroutine11
                                                   ?Subroutine13
                                                   ?Subroutine7
                                                   flash_memory_save_OTA_image
                                                   flash_memory_save_pkt_to_ram
                                                   read_packets
           ENTRY                   ADDRESS         REF BY
           =====                   =======         ======
           local_storage_buff      2979            ?Subroutine17 (modem)
                                                   ?Subroutine6 (modem)
                                                   fridge_sampled_data (fridge_data)
                                                   parse_input_value_for_sms (packet_format)
                                                   read_alarm_packets (device_alarms)
    -------------------------------------------------------------------------
DATA16_Z
  Relative segment, address: 225C - 2283 (0x28 bytes), align: 1
  Segment part 31.            Intra module refs:   default_idx_values
                                                   flash_memory_increment_get_page_idx
                                                   flash_memory_save_OTA_image
                                                   save_packet
                                                   update_put_get_idx
           ENTRY                   ADDRESS         REF BY
           =====                   =======         ======
           flash_memory            225C            ?Subroutine1 (device_alarms)
                                                   ?Subroutine3 (fridge_data)
                                                   ?Subroutine33 (modem)
                                                   append_data_in_buffer (packet_format)
                                                   check_battery_alarm (device_alarms)
                                                   check_for_OTA (ota)
                                                   default_param_reset (config)
                                                   device_ready_http (packet_format)
                                                   fridge_sampled_data (fridge_data)
                                                   gprs_config_dev (sms)
                                                   gsm_init (modem)
                                                   ota_process (ota)
                                                   parse_diag_command (debug)
                                                   read_alarm_packets (device_alarms)
                                                   setvalue (config)
                                                   temp_sampled_data (modem)
    -------------------------------------------------------------------------
<CODE> 1 (was CODE)
  Relative segment, address: 00011938 - 00011979 (0x42 bytes), align: 1
  Segment part 37.
           ENTRY                   ADDRESS         REF BY
           =====                   =======         ======
           SPI_Init                00011938        setup_IO (main_system)
    -------------------------------------------------------------------------
<CODE> 1 (was CODE)
  Relative segment, address: 00012526 - 0001253D (0x18 bytes), align: 1
  Segment part 38.            Intra module refs:   ?Subroutine3
                                                   ?Subroutine4
                                                   ?Subroutine5
                                                   W25Q16_Sector_Erase
           ENTRY                   ADDRESS         REF BY
           =====                   =======         ======
           SPI_Write               00012526 
    -------------------------------------------------------------------------
<CODE> 1 (was CODE)
  Relative segment, address: 00012556 - 0001256D (0x18 bytes), align: 1
  Segment part 39.            Intra module refs:   ?Subroutine3
                                                   W25Q16_Read
           ENTRY                   ADDRESS         REF BY
           =====                   =======         ======
           SPI_Read                00012556 
    -------------------------------------------------------------------------
<CODE,LOW_MEM> 1 (was CODE)
  Relative segment, address: 96BE - 96C7 (0xa bytes), align: 1
  Segment part 40.            Intra module refs:   W25Q16_Sector_Erase
                                                   W25Q16_Write
                                                   W25q16_Erasure
           ENTRY                   ADDRESS         REF BY
           =====                   =======         ======
           Write_Enable            96BE 
               calls direct
    -------------------------------------------------------------------------
<CODE,LOW_MEM> 1 (was CODE)
  Relative segment, address: 96C8 - 96CB (0x4 bytes), align: 1
  Segment part 41.            Intra module refs:   W25q16_Erasure
                                                   Write_Enable
                                                   extFlashPowerDown
                                                   extFlashPowerStandby
           LOCAL                   ADDRESS         
           =====                   =======         
           ?Subroutine4            96C8 
    -------------------------------------------------------------------------
<CODE,LOW_MEM> 1 (was CODE)
  Relative segment, address: 96CC - 96D1 (0x6 bytes), align: 1
  Segment part 42.            Intra module refs:   ?Subroutine3
                                                   ?Subroutine4
           LOCAL                   ADDRESS         
           =====                   =======         
           ?Subroutine18           96CC 
    -------------------------------------------------------------------------
<CODE,LOW_MEM> 1 (was CODE)
  Relative segment, address: 96D2 - 96D9 (0x8 bytes), align: 1
  Segment part 44.            Intra module refs:   ?Subroutine16
                                                   W25Q16_Sector_Erase
                                                   W25q16_Erasure
           ENTRY                   ADDRESS         REF BY
           =====                   =======         ======
           W25Q16_BUSY             96D2 
               calls direct
    -------------------------------------------------------------------------
<CODE,LOW_MEM> 1 (was CODE)
  Relative segment, address: 96DA - 96EB (0x12 bytes), align: 1
  Segment part 45.            Intra module refs:   save_packet
           ENTRY                   ADDRESS         REF BY
           =====                   =======         ======
           extFlashPowerDown       96DA 
               calls direct
    -------------------------------------------------------------------------
<CODE,LOW_MEM> 1 (was CODE)
  Relative segment, address: 96EC - 9703 (0x18 bytes), align: 1
  Segment part 46.            Intra module refs:   ?Subroutine9
                                                   W25Q16_Sector_Erase
                                                   W25q16_Erasure
           ENTRY                   ADDRESS         REF BY
           =====                   =======         ======
           extFlashPowerStandby    96EC 
               calls direct
    -------------------------------------------------------------------------
<CODE,LOW_MEM> 1 (was CODE)
  Relative segment, address: 9704 - 972B (0x28 bytes), align: 1
  Segment part 47.            Intra module refs:   flash_memory_save_OTA_image
                                                   save_packet
           ENTRY                   ADDRESS         REF BY
           =====                   =======         ======
           W25Q16_Write            9704 
               calls direct
    -------------------------------------------------------------------------
<CODE,LOW_MEM> 1 (was CODE)
  Relative segment, address: 972C - 9733 (0x8 bytes), align: 1
  Segment part 48.            Intra module refs:   W25Q16_Read
                                                   W25Q16_Write
           LOCAL                   ADDRESS         
           =====                   =======         
           ?Subroutine1            972C 
    -------------------------------------------------------------------------
<CODE,LOW_MEM> 1 (was CODE)
  Relative segment, address: 9734 - 973D (0xa bytes), align: 1
  Segment part 49.            Intra module refs:   ?Subroutine5
                                                   W25Q16_Write
                                                   extFlashPowerStandby
           LOCAL                   ADDRESS         
           =====                   =======         
           ?Subroutine16           9734 
    -------------------------------------------------------------------------
<CODE,LOW_MEM> 1 (was CODE)
  Relative segment, address: 973E - 9767 (0x2a bytes), align: 1
  Segment part 50.            Intra module refs:   read_packets
           ENTRY                   ADDRESS         REF BY
           =====                   =======         ======
           W25Q16_Read             973E 
               calls direct
    -------------------------------------------------------------------------
<CODE,LOW_MEM> 1 (was CODE)
  Relative segment, address: 9768 - 9775 (0xe bytes), align: 1
  Segment part 51.            Intra module refs:   W25Q16_Read
                                                   W25Q16_Write
           LOCAL                   ADDRESS         
           =====                   =======         
           ?Subroutine9            9768 
    -------------------------------------------------------------------------
<CODE,LOW_MEM> 1 (was CODE)
  Relative segment, address: 9776 - 9785 (0x10 bytes), align: 1
  Segment part 52.            Intra module refs:   W25Q16_Read
                                                   W25Q16_Write
           LOCAL                   ADDRESS         
           =====                   =======         
           ?Subroutine8            9776 
    -------------------------------------------------------------------------
<CODE,LOW_MEM> 1 (was CODE)
  Relative segment, address: 9786 - 9793 (0xe bytes), align: 1
  Segment part 53.            Intra module refs:   W25Q16_Read
                                                   W25Q16_Write
           LOCAL                   ADDRESS         
           =====                   =======         
           ?Subroutine5            9786 
    -------------------------------------------------------------------------
<CODE,LOW_MEM> 1 (was CODE)
  Relative segment, address: 9794 - 97C5 (0x32 bytes), align: 1
  Segment part 54.            Intra module refs:   read_indexes
           ENTRY                   ADDRESS         REF BY
           =====                   =======         ======
           W25q16_Erasure          9794 
               calls direct
    -------------------------------------------------------------------------
<CODE,LOW_MEM> 1 (was CODE)
  Relative segment, address: 97C6 - 980F (0x4a bytes), align: 1
  Segment part 55.            Intra module refs:   flash_memory_save_OTA_image
                                                   save_packet
           ENTRY                   ADDRESS         REF BY
           =====                   =======         ======
           W25Q16_Sector_Erase     97C6 
               calls direct
    -------------------------------------------------------------------------
<CODE,LOW_MEM> 1 (was CODE)
  Relative segment, address: 9810 - 9817 (0x8 bytes), align: 1
  Segment part 56.            Intra module refs:   W25Q16_Sector_Erase
           LOCAL                   ADDRESS         
           =====                   =======         
           ?Subroutine6            9810 
    -------------------------------------------------------------------------
<CODE,LOW_MEM> 1 (was CODE)
  Relative segment, address: 9818 - 982D (0x16 bytes), align: 1
  Segment part 57.            Intra module refs:   flash_memory_save_OTA_image
                                                   save_packet
           ENTRY                   ADDRESS         REF BY
           =====                   =======         ======
           flash_memory_save_pkt_to_ram
                                   9818 
               calls direct
    -------------------------------------------------------------------------
<CODE,LOW_MEM> 1 (was CODE)
  Relative segment, address: 982E - 9877 (0x4a bytes), align: 1
  Segment part 58.
           ENTRY                   ADDRESS         REF BY
           =====                   =======         ======
           flash_memory_save_OTA_image
                                   982E            ota_process (ota)
               calls direct
    -------------------------------------------------------------------------
<CODE,LOW_MEM> 1 (was CODE)
  Relative segment, address: 9878 - 9885 (0xe bytes), align: 1
  Segment part 59.            Intra module refs:   flash_memory_save_OTA_image
                                                   flash_memory_save_pkt_to_ram
                                                   save_packet
           LOCAL                   ADDRESS         
           =====                   =======         
           ?Subroutine7            9878 
    -------------------------------------------------------------------------
<CODE,LOW_MEM> 1 (was CODE)
  Relative segment, address: 9886 - 9899 (0x14 bytes), align: 1
  Segment part 62.            Intra module refs:   W25Q16_BUSY
           LOCAL                   ADDRESS         
           =====                   =======         
           ?Subroutine3            9886 
    -------------------------------------------------------------------------
<CODE> 1 (was CODE)
  Relative segment, address: 00012FBA - 00012FBF (0x6 bytes), align: 1
  Segment part 72.            Intra module refs:   flash_memory_save_OTA_image
                                                   read_packets
                                                   save_packet
           LOCAL                   ADDRESS         
           =====                   =======         
           ?Subroutine14           00012FBA 
    -------------------------------------------------------------------------
<CODE> 1 (was CODE)
  Relative segment, address: 00012DF4 - 00012DFD (0xa bytes), align: 1
  Segment part 73.            Intra module refs:   flash_memory_save_OTA_image
                                                   read_packets
                                                   save_packet
           LOCAL                   ADDRESS         
           =====                   =======         
           ?Subroutine11           00012DF4 
    -------------------------------------------------------------------------
<CODE> 1 (was CODE)
  Relative segment, address: 00011DD0 - 00011E01 (0x32 bytes), align: 1
  Segment part 63.            Intra module refs:   default_idx_values
                                                   update_put_get_idx
           ENTRY                   ADDRESS         REF BY
           =====                   =======         ======
           fram_write              00011DD0        check_for_OTA (ota)
                                                   parse_diag_command (debug)
    -------------------------------------------------------------------------
<CODE> 1 (was CODE)
  Relative segment, address: 000113F0 - 0001144B (0x5c bytes), align: 1
  Segment part 64.            Intra module refs:   read_indexes
           ENTRY                   ADDRESS         REF BY
           =====                   =======         ======
           default_idx_values      000113F0 
               calls direct
    -------------------------------------------------------------------------
<CODE> 1 (was CODE)
  Relative segment, address: 00012840 - 00012851 (0x12 bytes), align: 1
  Segment part 65.            Intra module refs:   ?Subroutine2
           ENTRY                   ADDRESS         REF BY
           =====                   =======         ======
           update_put_get_idx      00012840        check_for_OTA (ota)
                                                   default_param_reset (config)
                                                   fridge_sampled_data (fridge_data)
                                                   read_alarm_packets (device_alarms)
                                                   setvalue (config)
                                                   temp_sampled_data (modem)
               calls direct
    -------------------------------------------------------------------------
<CODE,LOW_MEM> 1 (was CODE)
  Relative segment, address: A99C - AA07 (0x6c bytes), align: 1
  Segment part 69.
           ENTRY                   ADDRESS         REF BY
           =====                   =======         ======
           read_indexes            A99C            default_param_reset (config)
                                                   gsm_init (modem)
               calls direct
    -------------------------------------------------------------------------
<CODE,LOW_MEM> 1 (was CODE)
  Relative segment, address: AA08 - AA0F (0x8 bytes), align: 1
  Segment part 70.            Intra module refs:   read_indexes
                                                   save_packet
           LOCAL                   ADDRESS         
           =====                   =======         
           ?Subroutine2            AA08 
    -------------------------------------------------------------------------
<CODE,LOW_MEM> 1 (was CODE)
  Relative segment, address: AA10 - AAEF (0xe0 bytes), align: 1
  Segment part 71.
           ENTRY                   ADDRESS         REF BY
           =====                   =======         ======
           save_packet             AA10            ?Subroutine1 (device_alarms)
                                                   append_data_in_buffer (packet_format)
                                                   check_battery_alarm (device_alarms)
                                                   check_data_crc (fridge_data)
               calls direct
    -------------------------------------------------------------------------
<CODE> 1 (was CODE)
  Relative segment, address: 000123FE - 00012419 (0x1c bytes), align: 1
  Segment part 66.            Intra module refs:   read_indexes
           ENTRY                   ADDRESS         REF BY
           =====                   =======         ======
           read_mem_segment        000123FE 
    -------------------------------------------------------------------------
<CODE> 1 (was CODE)
  Relative segment, address: 0001075A - 000107EB (0x92 bytes), align: 1
  Segment part 68.            Intra module refs:   read_indexes
                                                   read_packets
                                                   save_packet
           ENTRY                   ADDRESS         REF BY
           =====                   =======         ======
           itoa                    0001075A        ack_to_fridge (fridge_data)
                                                   batt_getlevel (battery)
                                                   check_data_crc (fridge_data)
               calls direct
    -------------------------------------------------------------------------
<CODE> 1 (was CODE)
  Relative segment, address: 00011F22 - 00011F4F (0x2e bytes), align: 1
  Segment part 67.            Intra module refs:   itoa
           ENTRY                   ADDRESS         REF BY
           =====                   =======         ======
           strrev                  00011F22 
               calls direct
    -------------------------------------------------------------------------
<CODE> 1 (was CODE)
  Relative segment, address: 000126F6 - 0001270B (0x16 bytes), align: 1
  Segment part 74.            Intra module refs:   save_packet
           LOCAL                   ADDRESS         
           =====                   =======         
           ?Subroutine10           000126F6 
    -------------------------------------------------------------------------
<CODE> 1 (was CODE)
  Relative segment, address: 0001294E - 0001295F (0x12 bytes), align: 1
  Segment part 80.            Intra module refs:   read_packets
                                                   save_packet
           LOCAL                   ADDRESS         
           =====                   =======         
           ?Subroutine13           0001294E 
    -------------------------------------------------------------------------
<CODE> 1 (was CODE)
  Relative segment, address: 00011332 - 00011391 (0x60 bytes), align: 1
  Segment part 75.
           ENTRY                   ADDRESS         REF BY
           =====                   =======         ======
           flash_memory_increment_get_page_idx
                                   00011332        ?Subroutine2 (fridge_data)
                                                   ?Subroutine28 (modem)
                                                   read_alarm_packets (device_alarms)
    -------------------------------------------------------------------------
<CODE> 1 (was CODE)
  Relative segment, address: 00012B56 - 00012B63 (0xe bytes), align: 1
  Segment part 76.            Intra module refs:   read_packets
           ENTRY                   ADDRESS         REF BY
           =====                   =======         ======
           flash_memory_get_count_of_saved_packets
                                   00012B56        parse_diag_command (debug)
    -------------------------------------------------------------------------
<CODE> 1 (was CODE)
  Relative segment, address: 000106C0 - 00010759 (0x9a bytes), align: 1
  Segment part 77.
           ENTRY                   ADDRESS         REF BY
           =====                   =======         ======
           read_packets            000106C0        ?Subroutine32 (modem)
                                                   fridge_sampled_data (fridge_data)
                                                   read_alarm_packets (device_alarms)
               calls direct
    -------------------------------------------------------------------------
<CODE> 1 (was CODE)
  Relative segment, address: 00012F3A - 00012F41 (0x8 bytes), align: 1
  Segment part 78.            Intra module refs:   read_packets
           LOCAL                   ADDRESS         
           =====                   =======         
           ?Subroutine15           00012F3A 
    -------------------------------------------------------------------------
<CODE> 1 (was CODE)
  Relative segment, address: 00012AC0 - 00012ACF (0x10 bytes), align: 1
  Segment part 79.            Intra module refs:   ?Subroutine15
                                                   read_packets
           LOCAL                   ADDRESS         
           =====                   =======         
           ?Subroutine17           00012AC0 
    -------------------------------------------------------------------------
<CODE> 1 (was CODE)
  Relative segment, address: 00012F42 - 00012F49 (0x8 bytes), align: 1
  Segment part 81.            Intra module refs:   read_packets
           LOCAL                   ADDRESS         
           =====                   =======         
           ?Subroutine12           00012F42 
    -------------------------------------------------------------------------
DATA16_C
  Relative segment, address: 681B - 682B (0x11 bytes), align: 0
  Segment part 16.            Intra module refs:   default_idx_values
    -------------------------------------------------------------------------
DATA16_C
  Relative segment, address: 682C - 6842 (0x17 bytes), align: 0
  Segment part 17.            Intra module refs:   read_indexes
    -------------------------------------------------------------------------
DATA16_C
  Relative segment, address: 6843 - 6847 (0x5 bytes), align: 0
  Segment part 18.            Intra module refs:   read_indexes
    -------------------------------------------------------------------------
DATA16_C
  Relative segment, address: 6848 - 6865 (0x1e bytes), align: 0
  Segment part 19.            Intra module refs:   save_packet
    -------------------------------------------------------------------------
DATA16_C
  Relative segment, address: 6866 - 6870 (0xb bytes), align: 0
  Segment part 20.            Intra module refs:   save_packet
    -------------------------------------------------------------------------
DATA16_C
  Relative segment, address: 6871 - 6873 (0x3 bytes), align: 0
  Segment part 21.            Intra module refs:   read_packets
                                                   save_packet
    -------------------------------------------------------------------------
DATA16_C
  Relative segment, address: 6874 - 6880 (0xd bytes), align: 0
  Segment part 22.            Intra module refs:   save_packet
    -------------------------------------------------------------------------
DATA16_C
  Relative segment, address: 6881 - 6888 (0x8 bytes), align: 0
  Segment part 23.            Intra module refs:   ?Subroutine13
    -------------------------------------------------------------------------
DATA16_C
  Relative segment, address: 6889 - 688B (0x3 bytes), align: 0
  Segment part 24.            Intra module refs:   ?Subroutine13
    -------------------------------------------------------------------------
DATA16_C
  Relative segment, address: 688C - 68A4 (0x19 bytes), align: 0
  Segment part 25.            Intra module refs:   read_packets
    -------------------------------------------------------------------------
DATA16_C
  Relative segment, address: 68A5 - 68C1 (0x1d bytes), align: 0
  Segment part 26.            Intra module refs:   read_packets
    -------------------------------------------------------------------------
DATA16_C
  Relative segment, address: 68C2 - 68CD (0xc bytes), align: 0
  Segment part 27.            Intra module refs:   read_packets
    -------------------------------------------------------------------------
DATA16_C
  Relative segment, address: 68CE - 68D7 (0xa bytes), align: 0
  Segment part 28.            Intra module refs:   read_packets

    *************************************************************************

  FILE NAME : E:\NLAU_FISM_SDK_july20\tempsensor_v1\IAR\nlau_fism_1_aug\NLAU_FISM_SDK\tempsensor_v1\IAR\Fism\Obj\state_machine.r43
  PROGRAM MODULE, NAME : state_machine

  SEGMENTS IN THE MODULE
  ======================
STATE_MACHINE
  Relative segment, address: 4000 - 40D7 (0xd8 bytes), align: 1
  Segment part 7.             Intra module refs:   Segment part 9
           ENTRY                   ADDRESS         REF BY
           =====                   =======         ======
           g_SystemState           4000 
    -------------------------------------------------------------------------
DATA16_I
  Relative segment, address: 2140 - 2141 (0x2 bytes), align: 1
  Segment part 8.             Intra module refs:   state_alarm_reset_all
                                                   state_alarm_reset_battery
                                                   state_alarm_reset_power
                                                   state_alarm_reset_sensors
                                                   state_battery_level
                                                   state_clear_alarm_state
                                                   state_init
           ENTRY                   ADDRESS         REF BY
           =====                   =======         ======
           g_pSysState             2140            ?Subroutine0 (temperature)
                                                   ADC12_ISR (temperature)
                                                   alarm_sms (alarms)
                                                   alarm_test_sensor (alarms)
                                                   config_parse_configuration_sms (config)
                                                   getAlarmsSensor (alarms)
                                                   i2c_temperature (temperature)
                                                   setvalue (config)
                                                   temperature_analog_to_digital_conversion (temperature)
                                                   temperature_single_capture (temperature)
                                                   temperature_subsamples (temperature)
                                                   temperature_subsampling_calculate (temperature)
                                                   temperature_trigger_capture (temperature)
                                                   temperature_trigger_init (temperature)
    -------------------------------------------------------------------------
<CODE> 1 (was CODE)
  Relative segment, address: 00010CBC - 00010D37 (0x7c bytes), align: 1
  Segment part 27.
           ENTRY                   ADDRESS         REF BY
           =====                   =======         ======
           state_init              00010CBC        main (main_system)
               calls direct
    -------------------------------------------------------------------------
<CODE> 1 (was CODE)
  Relative segment, address: 000119BC - 000119FB (0x40 bytes), align: 1
  Segment part 33.            Intra module refs:   state_alarm_reset_all
           ENTRY                   ADDRESS         REF BY
           =====                   =======         ======
           state_alarm_reset_sensors
                                   000119BC 
               calls direct
    -------------------------------------------------------------------------
<CODE> 1 (was CODE)
  Relative segment, address: 00012A60 - 00012A6F (0x10 bytes), align: 1
  Segment part 34.            Intra module refs:   state_alarm_reset_all
           ENTRY                   ADDRESS         REF BY
           =====                   =======         ======
           state_alarm_reset_battery
                                   00012A60 
    -------------------------------------------------------------------------
<CODE> 1 (was CODE)
  Relative segment, address: 00012688 - 0001269D (0x16 bytes), align: 1
  Segment part 35.            Intra module refs:   state_alarm_reset_all
           ENTRY                   ADDRESS         REF BY
           =====                   =======         ======
           state_alarm_reset_power
                                   00012688 
    -------------------------------------------------------------------------
<CODE> 1 (was CODE)
  Relative segment, address: 00012586 - 0001259D (0x18 bytes), align: 1
  Segment part 37.            Intra module refs:   state_alarm_reset_all
           ENTRY                   ADDRESS         REF BY
           =====                   =======         ======
           state_clear_alarm_state
                                   00012586 
    -------------------------------------------------------------------------
<CODE> 1 (was CODE)
  Relative segment, address: 0001259E - 000125B5 (0x18 bytes), align: 1
  Segment part 38.
           ENTRY                   ADDRESS         REF BY
           =====                   =======         ======
           state_alarm_reset_all   0001259E        dev_sms_cofig (sms)
                                                   events_health_check (events)
                                                   parse_diag_command (debug)
               calls direct
    -------------------------------------------------------------------------
<CODE> 1 (was CODE)
  Relative segment, address: 0001090C - 00010999 (0x8e bytes), align: 1
  Segment part 43.
           ENTRY                   ADDRESS         REF BY
           =====                   =======         ======
           state_battery_level     0001090C        events_health_check (events)
               calls direct
    -------------------------------------------------------------------------
<CODE> 1 (was CODE)
  Relative segment, address: 00011F7E - 00011FAB (0x2e bytes), align: 1
  Segment part 51.
           ENTRY                   ADDRESS         REF BY
           =====                   =======         ======
           state_check_disconn_flags
                                   00011F7E        events_health_check (events)
               calls direct
    -------------------------------------------------------------------------
DATA16_ID
  Relative segment, address: 6A0C - 6A0D (0x2 bytes), align: 1
  Segment part 9.             Intra module refs:   g_pSysState

    *************************************************************************

  FILE NAME : E:\NLAU_FISM_SDK_july20\tempsensor_v1\IAR\nlau_fism_1_aug\NLAU_FISM_SDK\tempsensor_v1\IAR\Fism\Obj\stringutils.r43
  PROGRAM MODULE, NAME : stringutils

  SEGMENTS IN THE MODULE
  ======================
AGGREGATE
  Relative segment, address: 4476 - 4519 (0xa4 bytes), align: 0
  Segment part 6.             Intra module refs:   getSMSBufferHelper
           ENTRY                   ADDRESS         REF BY
           =====                   =======         ======
           g_smsMsg                4476 
    -------------------------------------------------------------------------
AGGREGATE
  Relative segment, address: 451A - 4529 (0x10 bytes), align: 0
  Segment part 7.             Intra module refs:   ?Subroutine1
                                                   itoa_nopadding
                                                   itoa_pad
           ENTRY                   ADDRESS         REF BY
           =====                   =======         ======
           g_szItoa                451A 
    -------------------------------------------------------------------------
<CODE> 1 (was CODE)
  Relative segment, address: 000125E6 - 000125FD (0x18 bytes), align: 1
  Segment part 10.
           ENTRY                   ADDRESS         REF BY
           =====                   =======         ======
           getSMSBufferHelper      000125E6        alarm_sms (alarms)
               calls direct
    -------------------------------------------------------------------------
<CODE,LOW_MEM> 1 (was CODE)
  Relative segment, address: BF1E - BFF7 (0xda bytes), align: 1
  Segment part 11.
           ENTRY                   ADDRESS         REF BY
           =====                   =======         ======
           getFloatNumber2Text     BF1E            ?Subroutine23 (temperature)
                                                   i2c_temperature (temperature)
                                                   set_sen (config)
                                                   temp_check (temperature)
                                                   temperature_subsampling_calculate (temperature)
               calls direct
    -------------------------------------------------------------------------
<CODE> 1 (was CODE)
  Relative segment, address: 000127F8 - 00012809 (0x12 bytes), align: 1
  Segment part 12.            Intra module refs:   getFloatNumber2Text
           LOCAL                   ADDRESS         
           =====                   =======         
           ?Subroutine2            000127F8 
    -------------------------------------------------------------------------
<CODE> 1 (was CODE)
  Relative segment, address: 0001144C - 000114A3 (0x58 bytes), align: 1
  Segment part 15.
           ENTRY                   ADDRESS         REF BY
           =====                   =======         ======
           itoa_pad                0001144C        ?Subroutine16 (config)
                                                   ?Subroutine7 (config)
                                                   config_parse_configuration_sms (config)
                                                   setvalue (config)
                                                   temp_sampled_data (modem)
               calls direct
    -------------------------------------------------------------------------
<CODE> 1 (was CODE)
  Relative segment, address: 00012960 - 0001296F (0x10 bytes), align: 1
  Segment part 17.            Intra module refs:   itoa_nopadding
                                                   itoa_pad
           LOCAL                   ADDRESS         
           =====                   =======         
           ?Subroutine4            00012960 
    -------------------------------------------------------------------------
<CODE> 1 (was CODE)
  Relative segment, address: 000125CE - 000125E5 (0x18 bytes), align: 1
  Segment part 18.            Intra module refs:   itoa_nopadding
                                                   itoa_pad
           LOCAL                   ADDRESS         
           =====                   =======         
           ?Subroutine3            000125CE 
    -------------------------------------------------------------------------
<CODE> 1 (was CODE)
  Relative segment, address: 00012672 - 00012687 (0x16 bytes), align: 1
  Segment part 19.            Intra module refs:   itoa_nopadding
                                                   itoa_pad
           LOCAL                   ADDRESS         
           =====                   =======         
           ?Subroutine1            00012672 
    -------------------------------------------------------------------------
<CODE> 1 (was CODE)
  Relative segment, address: 0001169C - 000116EB (0x50 bytes), align: 1
  Segment part 16.
           ENTRY                   ADDRESS         REF BY
           =====                   =======         ======
           itoa_nopadding          0001169C        ?Subroutine1 (sms)
               calls direct
    -------------------------------------------------------------------------
DATA16_C
  Relative segment, address: 68D8 - 68DE (0x7 bytes), align: 0
  Segment part 2.             Intra module refs:   getFloatNumber2Text
    -------------------------------------------------------------------------
DATA16_C
  Relative segment, address: 68DF - 68E4 (0x6 bytes), align: 0
  Segment part 3.             Intra module refs:   getFloatNumber2Text

    *************************************************************************

  FILE NAME : E:\NLAU_FISM_SDK_july20\tempsensor_v1\IAR\nlau_fism_1_aug\NLAU_FISM_SDK\tempsensor_v1\IAR\Fism\Obj\sysctl.r43
    *************************************************************************

  FILE NAME : E:\NLAU_FISM_SDK_july20\tempsensor_v1\IAR\nlau_fism_1_aug\NLAU_FISM_SDK\tempsensor_v1\IAR\Fism\Obj\temperature.r43
  PROGRAM MODULE, NAME : temperature

  SEGMENTS IN THE MODULE
  ======================
DATA16_AN
  Relative segment, address: 0800 - 0801 (0x2 bytes), align: 0
  Segment part 1. ROOT        Intra module refs:   ADC_setupIO
                                                   temperature_trigger_capture
           ENTRY                   ADDRESS         REF BY
           =====                   =======         ======
           _A_ADC12CTL0_L          0800 
           LOCAL                   ADDRESS         
           =====                   =======         
           ADC12CTL0               0800 
           ADC12CTL0_H             0801 
           ADC12CTL0_L             0800 
    -------------------------------------------------------------------------
DATA16_AN
  Relative segment, address: 0802 - 0803 (0x2 bytes), align: 0
  Segment part 2. ROOT        Intra module refs:   ADC_setupIO
           ENTRY                   ADDRESS         REF BY
           =====                   =======         ======
           _A_ADC12CTL1_L          0802 
           LOCAL                   ADDRESS         
           =====                   =======         
           ADC12CTL1               0802 
           ADC12CTL1_H             0803 
           ADC12CTL1_L             0802 
    -------------------------------------------------------------------------
DATA16_AN
  Relative segment, address: 0804 - 0805 (0x2 bytes), align: 0
  Segment part 3. ROOT        Intra module refs:   ADC_setupIO
           ENTRY                   ADDRESS         REF BY
           =====                   =======         ======
           _A_ADC12CTL2_L          0804 
           LOCAL                   ADDRESS         
           =====                   =======         
           ADC12CTL2               0804 
           ADC12CTL2_H             0805 
           ADC12CTL2_L             0804 
    -------------------------------------------------------------------------
DATA16_AN
  Relative segment, address: 0806 - 0807 (0x2 bytes), align: 0
  Segment part 4. ROOT        Intra module refs:   ADC_setupIO
           ENTRY                   ADDRESS         REF BY
           =====                   =======         ======
           _A_ADC12CTL3_L          0806 
           LOCAL                   ADDRESS         
           =====                   =======         
           ADC12CTL3               0806 
           ADC12CTL3_H             0807 
           ADC12CTL3_L             0806 
    -------------------------------------------------------------------------
DATA16_AN
  Relative segment, address: 0818 - 0819 (0x2 bytes), align: 0
  Segment part 6. ROOT        Intra module refs:   ADC12_ISR
           ENTRY                   ADDRESS         REF BY
           =====                   =======         ======
           _A_ADC12IV_L            0818 
           LOCAL                   ADDRESS         
           =====                   =======         
           ADC12IV                 0818 
           ADC12IV_H               0819 
           ADC12IV_L               0818 
    -------------------------------------------------------------------------
DATA16_AN
  Relative segment, address: 0834 - 0835 (0x2 bytes), align: 0
  Segment part 7. ROOT        Intra module refs:   ADC_setupIO
           ENTRY                   ADDRESS         REF BY
           =====                   =======         ======
           _A_ADC12MCTL10_L        0834 
           LOCAL                   ADDRESS         
           =====                   =======         
           ADC12MCTL10             0834 
           ADC12MCTL10_H           0835 
           ADC12MCTL10_L           0834 
    -------------------------------------------------------------------------
DATA16_AN
  Relative segment, address: 0836 - 0837 (0x2 bytes), align: 0
  Segment part 8. ROOT        Intra module refs:   ADC_setupIO
           ENTRY                   ADDRESS         REF BY
           =====                   =======         ======
           _A_ADC12MCTL11_L        0836 
           LOCAL                   ADDRESS         
           =====                   =======         
           ADC12MCTL11             0836 
           ADC12MCTL11_H           0837 
           ADC12MCTL11_L           0836 
    -------------------------------------------------------------------------
DATA16_AN
  Relative segment, address: 083E - 083F (0x2 bytes), align: 0
  Segment part 9. ROOT        Intra module refs:   ADC_setupIO
           ENTRY                   ADDRESS         REF BY
           =====                   =======         ======
           _A_ADC12MCTL15_L        083E 
           LOCAL                   ADDRESS         
           =====                   =======         
           ADC12MCTL15             083E 
           ADC12MCTL15_H           083F 
           ADC12MCTL15_L           083E 
    -------------------------------------------------------------------------
DATA16_AN
  Relative segment, address: 086E - 086F (0x2 bytes), align: 0
  Segment part 10. ROOT       Intra module refs:   ADC12_ISR
           ENTRY                   ADDRESS         REF BY
           =====                   =======         ======
           _A_ADC12MEM7_L          086E 
           LOCAL                   ADDRESS         
           =====                   =======         
           ADC12MEM7               086E 
           ADC12MEM7_H             086F 
           ADC12MEM7_L             086E 
    -------------------------------------------------------------------------
DATA16_AN
  Relative segment, address: 0874 - 0875 (0x2 bytes), align: 0
  Segment part 11. ROOT       Intra module refs:   ADC12_ISR
           ENTRY                   ADDRESS         REF BY
           =====                   =======         ======
           _A_ADC12MEM10_L         0874 
           LOCAL                   ADDRESS         
           =====                   =======         
           ADC12MEM10              0874 
           ADC12MEM10_H            0875 
           ADC12MEM10_L            0874 
    -------------------------------------------------------------------------
DATA16_AN
  Relative segment, address: 0876 - 0877 (0x2 bytes), align: 0
  Segment part 12. ROOT       Intra module refs:   ADC12_ISR
           ENTRY                   ADDRESS         REF BY
           =====                   =======         ======
           _A_ADC12MEM11_L         0876 
           LOCAL                   ADDRESS         
           =====                   =======         
           ADC12MEM11              0876 
           ADC12MEM11_H            0877 
           ADC12MEM11_L            0876 
    -------------------------------------------------------------------------
DATA16_AN
  Relative segment, address: 087E - 087F (0x2 bytes), align: 0
  Segment part 13. ROOT       Intra module refs:   ADC12_ISR
           ENTRY                   ADDRESS         REF BY
           =====                   =======         ======
           _A_ADC12MEM15_L         087E 
           LOCAL                   ADDRESS         
           =====                   =======         
           ADC12MEM15              087E 
           ADC12MEM15_H            087F 
           ADC12MEM15_L            087E 
    -------------------------------------------------------------------------
DATA16_AN
  Relative segment, address: 01B0 - 01B1 (0x2 bytes), align: 0
  Segment part 14. ROOT       Intra module refs:   ADC_setupIO
           ENTRY                   ADDRESS         REF BY
           =====                   =======         ======
           _A_REFCTL0_L            01B0 
           LOCAL                   ADDRESS         
           =====                   =======         
           REFCTL0                 01B0 
           REFCTL0_H               01B1 
           REFCTL0_L               01B0 
    -------------------------------------------------------------------------
DATA16_AN
  Relative segment, address: 0700 - 0701 (0x2 bytes), align: 0
  Segment part 15. ROOT       Intra module refs:   i2c_temperature
           ENTRY                   ADDRESS         REF BY
           =====                   =======         ======
           _A_UCB3CTLW0_L          0700 
           LOCAL                   ADDRESS         
           =====                   =======         
           UCB3CTLW0               0700 
           UCB3CTLW0_H             0701 
           UCB3CTLW0_L             0700 
    -------------------------------------------------------------------------
DATA16_AN
  Relative segment, address: 0708 - 0709 (0x2 bytes), align: 0
  Segment part 16. ROOT       Intra module refs:   i2c_temperature
           ENTRY                   ADDRESS         REF BY
           =====                   =======         ======
           _A_UCB3STATW_L          0708 
           LOCAL                   ADDRESS         
           =====                   =======         
           UCB3STATW               0708 
           UCB3STATW_H             0709 
           UCB3STATW_L             0708 
    -------------------------------------------------------------------------
DATA16_Z
  Relative segment, address: 2284 - 2285 (0x2 bytes), align: 1
  Segment part 27.            Intra module refs:   ADC12_ISR
           ENTRY                   ADDRESS         REF BY
           =====                   =======         ======
           charger_con             2284 
    -------------------------------------------------------------------------
DATA16_Z
  Relative segment, address: 2286 - 2287 (0x2 bytes), align: 1
  Segment part 28.            Intra module refs:   ADC12_ISR
           ENTRY                   ADDRESS         REF BY
           =====                   =======         ======
           charger_con2            2286 
    -------------------------------------------------------------------------
DATA16_I
  Relative segment, address: 21D9 - 21D9 (0x1 bytes), align: 0
  Segment part 29.            Intra module refs:   i2c_temperature
           ENTRY                   ADDRESS         REF BY
           =====                   =======         ======
           slaveadr                21D9 
    -------------------------------------------------------------------------
DATA16_Z
  Relative segment, address: 2A79 - 2A7A (0x2 bytes), align: 0
  Segment part 31.            Intra module refs:   i2c_temperature
           ENTRY                   ADDRESS         REF BY
           =====                   =======         ======
           temper                  2A79 
    -------------------------------------------------------------------------
DATA16_Z
  Relative segment, address: 2288 - 228B (0x4 bytes), align: 1
  Segment part 33.            Intra module refs:   ?Subroutine21
                                                   i2c_temperature
           ENTRY                   ADDRESS         REF BY
           =====                   =======         ======
           temp_data               2288 
    -------------------------------------------------------------------------
DATA16_I
  Relative segment, address: 21DA - 21DD (0x4 bytes), align: 0
  Segment part 34.            Intra module refs:   temp_check
           ENTRY                   ADDRESS         REF BY
           =====                   =======         ======
           temp_disconnt           21DA            append_data_in_buffer (packet_format)
                                                   check_sensor_alarm (device_alarms)
    -------------------------------------------------------------------------
DATA16_Z
  Relative segment, address: 228C - 228D (0x2 bytes), align: 1
  Segment part 36.            Intra module refs:   i2c_temperature
           ENTRY                   ADDRESS         REF BY
           =====                   =======         ======
           temp                    228C 
    -------------------------------------------------------------------------
DATA16_Z
  Relative segment, address: 228E - 2291 (0x4 bytes), align: 1
  Segment part 37.            Intra module refs:   ?Subroutine23
                                                   ?Subroutine9
                                                   i2c_temperature
                                                   temperature_subsampling_calculate
           ENTRY                   ADDRESS         REF BY
           =====                   =======         ======
           A0tempdegC              228E 
    -------------------------------------------------------------------------
DATA16_Z
  Relative segment, address: 2A7B - 2AB4 (0x3a bytes), align: 0
  Segment part 38.            Intra module refs:   i2c_temperature
                                                   temp_check
                                                   temperature_analog_to_digital_conversion
           ENTRY                   ADDRESS         REF BY
           =====                   =======         ======
           dvalue                  2A7B            append_data_in_buffer (packet_format)
                                                   check_radio_signal (modem)
                                                   get_local_time (packet_format)
                                                   parse_diag_command (debug)
                                                   parse_input_value_for_sms (packet_format)
    -------------------------------------------------------------------------
<CODE> 1 (was CODE)
  Relative segment, address: 00011D9E - 00011DCF (0x32 bytes), align: 1
  Segment part 40.
           ENTRY                   ADDRESS         REF BY
           =====                   =======         ======
           ADC_setupIO             00011D9E        setup_IO (main_system)
    -------------------------------------------------------------------------
<CODE> 1 (was CODE)
  Relative segment, address: 00012D86 - 00012D91 (0xc bytes), align: 1
  Segment part 41.            Intra module refs:   i2c_temperature
                                                   temperature_subsampling_calculate
           ENTRY                   ADDRESS         REF BY
           =====                   =======         ======
           temperature_getString   00012D86        alarm_sms (alarms)
    -------------------------------------------------------------------------
<CODE> 1 (was CODE)
  Relative segment, address: 000126CA - 000126DF (0x16 bytes), align: 1
  Segment part 44.            Intra module refs:   temperature_getString
           LOCAL                   ADDRESS         
           =====                   =======         
           ?Subroutine0            000126CA 
    -------------------------------------------------------------------------
<CODE,LOW_MEM> 1 (was CODE)
  Relative segment, address: 989A - 9A6F (0x1d6 bytes), align: 1
  Segment part 45.            Intra module refs:   temp_check
           ENTRY                   ADDRESS         REF BY
           =====                   =======         ======
           i2c_temperature         989A 
               calls direct
    -------------------------------------------------------------------------
<CODE> 1 (was CODE)
  Relative segment, address: 00012C28 - 00012C35 (0xe bytes), align: 1
  Segment part 46.            Intra module refs:   i2c_temperature
           LOCAL                   ADDRESS         
           =====                   =======         
           ?Subroutine21           00012C28 
    -------------------------------------------------------------------------
<CODE> 1 (was CODE)
  Relative segment, address: 000127C2 - 000127D3 (0x12 bytes), align: 1
  Segment part 47.            Intra module refs:   i2c_temperature
           LOCAL                   ADDRESS         
           =====                   =======         
           ?Subroutine14           000127C2 
    -------------------------------------------------------------------------
<CODE> 1 (was CODE)
  Relative segment, address: 00012E9E - 00012EA7 (0xa bytes), align: 1
  Segment part 48.            Intra module refs:   i2c_temperature
           LOCAL                   ADDRESS         
           =====                   =======         
           ?Subroutine13           00012E9E 
    -------------------------------------------------------------------------
<CODE> 1 (was CODE)
  Relative segment, address: 00012F52 - 00012F59 (0x8 bytes), align: 1
  Segment part 58.            Intra module refs:   i2c_temperature
                                                   temperature_subsampling_calculate
           LOCAL                   ADDRESS         
           =====                   =======         
           ?Subroutine20           00012F52 
    -------------------------------------------------------------------------
<CODE> 1 (was CODE)
  Relative segment, address: 00012F92 - 00012F99 (0x8 bytes), align: 1
  Segment part 60.            Intra module refs:   i2c_temperature
                                                   temperature_subsampling_calculate
           LOCAL                   ADDRESS         
           =====                   =======         
           ?Subroutine18           00012F92 
    -------------------------------------------------------------------------
<CODE> 1 (was CODE)
  Relative segment, address: 00012F82 - 00012F89 (0x8 bytes), align: 1
  Segment part 62.            Intra module refs:   i2c_temperature
                                                   temperature_subsampling_calculate
           LOCAL                   ADDRESS         
           =====                   =======         
           ?Subroutine16           00012F82 
    -------------------------------------------------------------------------
<CODE> 1 (was CODE)
  Relative segment, address: 00012C52 - 00012C5F (0xe bytes), align: 1
  Segment part 63.            Intra module refs:   ?Subroutine16
                                                   ?Subroutine20
           LOCAL                   ADDRESS         
           =====                   =======         
           ?Subroutine26           00012C52 
    -------------------------------------------------------------------------
<CODE> 1 (was CODE)
  Relative segment, address: 00012F6A - 00012F71 (0x8 bytes), align: 1
  Segment part 64.            Intra module refs:   i2c_temperature
                                                   temperature_subsampling_calculate
           LOCAL                   ADDRESS         
           =====                   =======         
           ?Subroutine15           00012F6A 
    -------------------------------------------------------------------------
<CODE> 1 (was CODE)
  Relative segment, address: 00012C44 - 00012C51 (0xe bytes), align: 1
  Segment part 65.            Intra module refs:   ?Subroutine15
                                                   ?Subroutine18
           LOCAL                   ADDRESS         
           =====                   =======         
           ?Subroutine25           00012C44 
    -------------------------------------------------------------------------
<CODE> 1 (was CODE)
  Relative segment, address: 00012A50 - 00012A5F (0x10 bytes), align: 1
  Segment part 66.            Intra module refs:   i2c_temperature
                                                   temperature_subsampling_calculate
           LOCAL                   ADDRESS         
           =====                   =======         
           ?Subroutine12           00012A50 
    -------------------------------------------------------------------------
<CODE> 1 (was CODE)
  Relative segment, address: 000125B6 - 000125CD (0x18 bytes), align: 1
  Segment part 67.            Intra module refs:   i2c_temperature
                                                   temperature_subsampling_calculate
           LOCAL                   ADDRESS         
           =====                   =======         
           ?Subroutine11           000125B6 
    -------------------------------------------------------------------------
<CODE> 1 (was CODE)
  Relative segment, address: 000122BA - 000122D7 (0x1e bytes), align: 1
  Segment part 69.            Intra module refs:   i2c_temperature
                                                   temperature_subsampling_calculate
           LOCAL                   ADDRESS         
           =====                   =======         
           ?Subroutine5            000122BA 
    -------------------------------------------------------------------------
<CODE> 1 (was CODE)
  Relative segment, address: 00012A20 - 00012A2F (0x10 bytes), align: 1
  Segment part 70.            Intra module refs:   i2c_temperature
                                                   temperature_subsampling_calculate
           LOCAL                   ADDRESS         
           =====                   =======         
           ?Subroutine2            00012A20 
    -------------------------------------------------------------------------
<CODE> 1 (was CODE)
  Relative segment, address: 00012A00 - 00012A0F (0x10 bytes), align: 1
  Segment part 73.            Intra module refs:   ?Subroutine3
                                                   i2c_temperature
                                                   temperature_analog_to_digital_conversion
           LOCAL                   ADDRESS         
           =====                   =======         
           ?Subroutine23           00012A00 
    -------------------------------------------------------------------------
<CODE> 1 (was CODE)
  Relative segment, address: 00011A3C - 00011A79 (0x3e bytes), align: 1
  Segment part 49.            Intra module refs:   temperature_subsamples
           ENTRY                   ADDRESS         REF BY
           =====                   =======         ======
           temperature_trigger_init
                                   00011A3C 
    -------------------------------------------------------------------------
<CODE> 1 (was CODE)
  Relative segment, address: 0001223A - 00012259 (0x20 bytes), align: 1
  Segment part 50.            Intra module refs:   resistance_to_temperature
           ENTRY                   ADDRESS         REF BY
           =====                   =======         ======
           pow_                    0001223A 
               calls direct
    -------------------------------------------------------------------------
<CODE,LOW_MEM> 1 (was CODE)
  Relative segment, address: C190 - C25B (0xcc bytes), align: 1
  Segment part 51.            Intra module refs:   temperature_subsampling_calculate
           ENTRY                   ADDRESS         REF BY
           =====                   =======         ======
           resistance_to_temperature
                                   C190 
               calls direct
    -------------------------------------------------------------------------
<CODE> 1 (was CODE)
  Relative segment, address: 000129D0 - 000129DF (0x10 bytes), align: 1
  Segment part 52.            Intra module refs:   resistance_to_temperature
           LOCAL                   ADDRESS         
           =====                   =======         
           ?Subroutine7            000129D0 
    -------------------------------------------------------------------------
<CODE> 1 (was CODE)
  Relative segment, address: 000129C0 - 000129CF (0x10 bytes), align: 1
  Segment part 53.            Intra module refs:   resistance_to_temperature
           LOCAL                   ADDRESS         
           =====                   =======         
           ?Subroutine6            000129C0 
    -------------------------------------------------------------------------
<CODE> 1 (was CODE)
  Relative segment, address: 000129B0 - 000129B3 (0x4 bytes), align: 1
  Segment part 54.            Intra module refs:   resistance_to_temperature
           LOCAL                   ADDRESS         
           =====                   =======         
           ?Subroutine4            000129B0 
    -------------------------------------------------------------------------
<CODE> 1 (was CODE)
  Relative segment, address: 000129B4 - 000129BF (0xc bytes), align: 1
  Segment part 55.            Intra module refs:   ?Subroutine4
                                                   ?Subroutine7
           LOCAL                   ADDRESS         
           =====                   =======         
           ?Subroutine24           000129B4 
    -------------------------------------------------------------------------
<CODE> 1 (was CODE)
  Relative segment, address: 00012D62 - 00012D6D (0xc bytes), align: 1
  Segment part 56.            Intra module refs:   ?Subroutine4
                                                   resistance_to_temperature
           LOCAL                   ADDRESS         
           =====                   =======         
           ?Subroutine22           00012D62 
    -------------------------------------------------------------------------
<CODE,LOW_MEM> 1 (was CODE)
  Relative segment, address: 94DC - 96BD (0x1e2 bytes), align: 1
  Segment part 57.            Intra module refs:   temperature_analog_to_digital_conversion
           ENTRY                   ADDRESS         REF BY
           =====                   =======         ======
           temperature_subsampling_calculate
                                   94DC 
               calls direct
    -------------------------------------------------------------------------
<CODE> 1 (was CODE)
  Relative segment, address: 0001289A - 000128AB (0x12 bytes), align: 1
  Segment part 59.            Intra module refs:   temperature_subsampling_calculate
           LOCAL                   ADDRESS         
           =====                   =======         
           ?Subroutine19           0001289A 
    -------------------------------------------------------------------------
<CODE> 1 (was CODE)
  Relative segment, address: 00012E8A - 00012E93 (0xa bytes), align: 1
  Segment part 61.            Intra module refs:   temperature_subsampling_calculate
           LOCAL                   ADDRESS         
           =====                   =======         
           ?Subroutine17           00012E8A 
    -------------------------------------------------------------------------
<CODE> 1 (was CODE)
  Relative segment, address: 00012C0C - 00012C19 (0xe bytes), align: 1
  Segment part 68.            Intra module refs:   temperature_subsampling_calculate
           LOCAL                   ADDRESS         
           =====                   =======         
           ?Subroutine9            00012C0C 
    -------------------------------------------------------------------------
<CODE> 1 (was CODE)
  Relative segment, address: 00010F8C - 00010FFD (0x72 bytes), align: 1
  Segment part 72.            Intra module refs:   temp_check
                                                   temperature_single_capture
           ENTRY                   ADDRESS         REF BY
           =====                   =======         ======
           temperature_analog_to_digital_conversion
                                   00010F8C 
               calls direct
    -------------------------------------------------------------------------
<CODE> 1 (was CODE)
  Relative segment, address: 0001269E - 000126B3 (0x16 bytes), align: 1
  Segment part 74.            Intra module refs:   temperature_analog_to_digital_conversion
           LOCAL                   ADDRESS         
           =====                   =======         
           ?Subroutine3            0001269E 
    -------------------------------------------------------------------------
<CODE,LOW_MEM> 1 (was CODE)
  Relative segment, address: B830 - B94B (0x11c bytes), align: 1
  Segment part 78.
           ENTRY                   ADDRESS         REF BY
           =====                   =======         ======
           temp_check              B830            event_subsample_temperature (events)
                                                   events_health_check (events)
                                                   system_boot (main_system)
               calls direct
    -------------------------------------------------------------------------
<CODE> 1 (was CODE)
  Relative segment, address: 00012E76 - 00012E7F (0xa bytes), align: 1
  Segment part 79.            Intra module refs:   temp_check
           LOCAL                   ADDRESS         
           =====                   =======         
           ?Subroutine8            00012E76 
    -------------------------------------------------------------------------
DATA16_C
  Relative segment, address: 68E5 - 68F1 (0xd bytes), align: 0
  Segment part 18.            Intra module refs:   i2c_temperature
    -------------------------------------------------------------------------
DATA16_C
  Relative segment, address: 68F2 - 68FF (0xe bytes), align: 0
  Segment part 19.            Intra module refs:   i2c_temperature
    -------------------------------------------------------------------------
DATA16_C
  Relative segment, address: 6900 - 6902 (0x3 bytes), align: 0
  Segment part 20.            Intra module refs:   i2c_temperature
                                                   temperature_analog_to_digital_conversion
    -------------------------------------------------------------------------
DATA16_C
  Relative segment, address: 6903 - 6918 (0x16 bytes), align: 0
  Segment part 21.            Intra module refs:   i2c_temperature
                                                   temperature_subsampling_calculate
    -------------------------------------------------------------------------
DATA16_C
  Relative segment, address: 6919 - 6926 (0xe bytes), align: 0
  Segment part 22.            Intra module refs:   ?Subroutine3
    -------------------------------------------------------------------------
DATA16_C
  Relative segment, address: 6927 - 6934 (0xe bytes), align: 0
  Segment part 23.            Intra module refs:   temperature_analog_to_digital_conversion
    -------------------------------------------------------------------------
DATA16_C
  Relative segment, address: 6935 - 6939 (0x5 bytes), align: 0
  Segment part 24.            Intra module refs:   temp_check
    -------------------------------------------------------------------------
DATA16_C
  Relative segment, address: 693A - 6947 (0xe bytes), align: 0
  Segment part 25.            Intra module refs:   ADC12_ISR
    -------------------------------------------------------------------------
DATA16_C
  Relative segment, address: 6948 - 695B (0x14 bytes), align: 0
  Segment part 26.            Intra module refs:   ADC12_ISR
    -------------------------------------------------------------------------
<CODE> 1 (was CODE)
  Relative segment, address: 00012350 - 0001236D (0x1e bytes), align: 1
  Segment part 77.            Intra module refs:   temp_check
           ENTRY                   ADDRESS         REF BY
           =====                   =======         ======
           temperature_subsamples
                                   00012350 
               calls direct
    -------------------------------------------------------------------------
<CODE> 1 (was CODE)
  Relative segment, address: 00012126 - 00012149 (0x24 bytes), align: 1
  Segment part 75.            Intra module refs:   temperature_single_capture
           ENTRY                   ADDRESS         REF BY
           =====                   =======         ======
           temperature_trigger_capture
                                   00012126 
    -------------------------------------------------------------------------
<CODE> 1 (was CODE)
  Relative segment, address: 0001208A - 000120B3 (0x2a bytes), align: 1
  Segment part 76.            Intra module refs:   temp_check
           ENTRY                   ADDRESS         REF BY
           =====                   =======         ======
           temperature_single_capture
                                   0001208A 
               calls direct
    -------------------------------------------------------------------------
ISR_CODE
  Relative segment, address: 6C2A - 6D21 (0xf8 bytes), align: 1
  Segment part 80.
           ENTRY                   ADDRESS         REF BY
           =====                   =======         ======
           ADC12_ISR               6C2A            main (main_system)
               interrupt function
               calls direct
    -------------------------------------------------------------------------
DATA16_ID
  Relative segment, address: 6AA5 - 6AA5 (0x1 bytes), align: 0
  Segment part 30.            Intra module refs:   slaveadr
    -------------------------------------------------------------------------
DATA16_ID
  Relative segment, address: 6AA6 - 6AA9 (0x4 bytes), align: 0
  Segment part 35.            Intra module refs:   temp_disconnt
    -------------------------------------------------------------------------
<CODE> 1 (was CODE)
  Relative segment, address: 0001274C - 0001275F (0x14 bytes), align: 1
  Segment part 71.            Intra module refs:   i2c_temperature
                                                   temperature_subsampling_calculate
           LOCAL                   ADDRESS         
           =====                   =======         
           ?Subroutine1            0001274C 

    *************************************************************************

  FILE NAME : E:\NLAU_FISM_SDK_july20\tempsensor_v1\IAR\nlau_fism_1_aug\NLAU_FISM_SDK\tempsensor_v1\IAR\Fism\Obj\test.r43
    *************************************************************************

  FILE NAME : E:\NLAU_FISM_SDK_july20\tempsensor_v1\IAR\nlau_fism_1_aug\NLAU_FISM_SDK\tempsensor_v1\IAR\Fism\Obj\thermalcanyon.r43
  PROGRAM MODULE, NAME : thermalcanyon

  SEGMENTS IN THE MODULE
  ======================

    *************************************************************************

  FILE NAME : E:\NLAU_FISM_SDK_july20\tempsensor_v1\IAR\nlau_fism_1_aug\NLAU_FISM_SDK\tempsensor_v1\IAR\Fism\Obj\TI_MSPBoot_Mgr_Vectors_FR57xx.r43
  PROGRAM MODULE, NAME : TI_MSPBoot_Mgr_Vectors_FR57xx

  SEGMENTS IN THE MODULE
  ======================
DATA16_AN
  Relative segment, address: 0120 - 0121 (0x2 bytes), align: 0
  Segment part 1. ROOT        Intra module refs:   TI_MSPBoot_JumpToBoot
           ENTRY                   ADDRESS         REF BY
           =====                   =======         ======
           _A_PMMCTL0_L            0120 
           LOCAL                   ADDRESS         
           =====                   =======         
           PMMCTL0                 0120 
           PMMCTL0_H               0121 
           PMMCTL0_L               0120 
    -------------------------------------------------------------------------
DATA16_N
  Relative segment, address: 2AB6 - 2AB7 (0x2 bytes), align: 1
  Segment part 3.             Intra module refs:   TI_MSPBoot_JumpToBoot
           ENTRY                   ADDRESS         REF BY
           =====                   =======         ======
           PassWd                  2AB6 
    -------------------------------------------------------------------------
DATA16_N
  Relative segment, address: 2AB8 - 2AB8 (0x1 bytes), align: 0
  Segment part 4.             Intra module refs:   TI_MSPBoot_JumpToBoot
           ENTRY                   ADDRESS         REF BY
           =====                   =======         ======
           StatCtrl                2AB8 
    -------------------------------------------------------------------------
<CODE> 1 (was CODE)
  Relative segment, address: 00012616 - 0001262D (0x18 bytes), align: 1
  Segment part 5.
           ENTRY                   ADDRESS         REF BY
           =====                   =======         ======
           TI_MSPBoot_JumpToBoot   00012616        check_for_OTA (ota)

    *************************************************************************

  FILE NAME : E:\NLAU_FISM_SDK_july20\tempsensor_v1\IAR\nlau_fism_1_aug\NLAU_FISM_SDK\tempsensor_v1\IAR\Fism\Obj\TI_MSPBoot_VecRed_FR5969.r43
  PROGRAM MODULE, NAME : TI_MSPBoot_VecRed_FR5969

  SEGMENTS IN THE MODULE
  ======================
APP_PROXY_VECTORS
  Relative segment, address: C36A - C3FD (0x94 bytes), align: 1
  Segment part 2. ROOT 
           ENTRY                   ADDRESS         REF BY
           =====                   =======         ======
           ProxyVectorTable        C36A 

    *************************************************************************

  FILE NAME : E:\NLAU_FISM_SDK_july20\tempsensor_v1\IAR\nlau_fism_1_aug\NLAU_FISM_SDK\tempsensor_v1\IAR\Fism\Obj\timer.r43
  PROGRAM MODULE, NAME : timer

  SEGMENTS IN THE MODULE
  ======================
DATA16_AN
  Relative segment, address: 03C0 - 03C1 (0x2 bytes), align: 0
  Segment part 1. ROOT 
           ENTRY                   ADDRESS         REF BY
           =====                   =======         ======
           _A_TB0CTL_L             03C0 
           LOCAL                   ADDRESS         
           =====                   =======         
           TB0CTL                  03C0 
           TB0CTL_H                03C1 
           TB0CTL_L                03C0 
    -------------------------------------------------------------------------
DATA16_AN
  Relative segment, address: 03C2 - 03C3 (0x2 bytes), align: 0
  Segment part 2. ROOT 
           ENTRY                   ADDRESS         REF BY
           =====                   =======         ======
           _A_TB0CCTL0_L           03C2 
           LOCAL                   ADDRESS         
           =====                   =======         
           TB0CCTL0                03C2 
           TB0CCTL0_H              03C3 
           TB0CCTL0_L              03C2 
    -------------------------------------------------------------------------
DATA16_AN
  Relative segment, address: 03D2 - 03D3 (0x2 bytes), align: 0
  Segment part 3. ROOT 
           ENTRY                   ADDRESS         REF BY
           =====                   =======         ======
           _A_TB0CCR0_L            03D2 
           LOCAL                   ADDRESS         
           =====                   =======         
           TB0CCR0                 03D2 
           TB0CCR0_H               03D3 
           TB0CCR0_L               03D2 
    -------------------------------------------------------------------------
DATA16_Z
  Relative segment, address: 2292 - 2295 (0x4 bytes), align: 1
  Segment part 7.
           ENTRY                   ADDRESS         REF BY
           =====                   =======         ======
           epoch_seconds           2292            RTC_C_ISR (rtc)
                                                   ack_to_fridge (fridge_data)
                                                   add_sec_in_date_time (packet_format)
                                                   gsm_init (modem)
                                                   rtc_getUTCsecs (rtc)
    -------------------------------------------------------------------------
<CODE,LOW_MEM> 1 (was LOW_MEM)
  Relative segment, address: 6D22 - 6D25 (0x4 bytes), align: 1
  Segment part 8.
           ENTRY                   ADDRESS         REF BY
           =====                   =======         ======
           delay                   6D22            check_batt_state (battery)
                                                   modem_reset (main_system)
               calls indirect

    *************************************************************************

  FILE NAME : E:\NLAU_FISM_SDK_july20\tempsensor_v1\IAR\nlau_fism_1_aug\NLAU_FISM_SDK\tempsensor_v1\IAR\Fism\Obj\timer_a.r43
    *************************************************************************

  FILE NAME : E:\NLAU_FISM_SDK_july20\tempsensor_v1\IAR\nlau_fism_1_aug\NLAU_FISM_SDK\tempsensor_v1\IAR\Fism\Obj\timer_b.r43
    *************************************************************************

  FILE NAME : E:\NLAU_FISM_SDK_july20\tempsensor_v1\IAR\nlau_fism_1_aug\NLAU_FISM_SDK\tempsensor_v1\IAR\Fism\Obj\tlv.r43
    *************************************************************************

  FILE NAME : E:\NLAU_FISM_SDK_july20\tempsensor_v1\IAR\nlau_fism_1_aug\NLAU_FISM_SDK\tempsensor_v1\IAR\Fism\Obj\watchdog.r43
  PROGRAM MODULE, NAME : watchdog

  SEGMENTS IN THE MODULE
  ======================
<CODE> 1 (was CODE)
  Relative segment, address: 00012F62 - 00012F69 (0x8 bytes), align: 1
  Segment part 3.
           ENTRY                   ADDRESS         REF BY
           =====                   =======         ======
           watchdog_disable        00012F62        check_batt_state (battery)
                                                   check_for_OTA (ota)
                                                   main (main_system)

    *************************************************************************

  FILE NAME : E:\NLAU_FISM_SDK_july20\tempsensor_v1\IAR\nlau_fism_1_aug\NLAU_FISM_SDK\tempsensor_v1\IAR\Fism\Obj\wdt_a.r43
    *************************************************************************

  FILE NAME : C:\Program Files (x86)\IAR Systems\Embedded Workbench 7.4\430\lib\dlib\dl430xlmff.r43
  LIBRARY MODULE, NAME : ?abort

  SEGMENTS IN THE MODULE
  ======================
<CODE> 1 (was CODE)
  Relative segment, address: 00012980 - 0001298F (0x10 bytes), align: 1
  Segment part 2.
           ENTRY                   ADDRESS         REF BY
           =====                   =======         ======
           abort                   00012980        __record_needed_destruction (?cppinit)
               calls direct

    -------------------------------------------------------------------------
  LIBRARY MODULE, NAME : ?__dbg_break

  SEGMENTS IN THE MODULE
  ======================
<CODE> 1 (was CODE)
  Relative segment, address: 00012FE4 - 00012FE5 (0x2 bytes), align: 1
  Segment part 2.
           ENTRY                   ADDRESS         REF BY
           =====                   =======         ======
           __DebugBreak            00012FE4        __exit (?__exit)
                                                   abort (?abort)

    -------------------------------------------------------------------------
  LIBRARY MODULE, NAME : ?__exit

  SEGMENTS IN THE MODULE
  ======================
<CODE> 1 (was CODE)
  Relative segment, address: 00012760 - 00012773 (0x14 bytes), align: 1
  Segment part 2.
           ENTRY                   ADDRESS         REF BY
           =====                   =======         ======
           __exit                  00012760        Segment part 6 (?_exit)
                                                   _exit (?_exit)
                                                   abort (?abort)
               calls direct

    -------------------------------------------------------------------------
  LIBRARY MODULE, NAME : ?atexit

  SEGMENTS IN THE MODULE
  ======================
<CODE> 1 (was CODE)
  Relative segment, address: 00012E58 - 00012E5D (0x6 bytes), align: 1
  Segment part 3.             Intra module refs:   __iar_Atexit
    -------------------------------------------------------------------------
<CODE> 1 (was CODE)
  Relative segment, address: 00012E5E - 00012E61 (0x4 bytes), align: 1
  Segment part 4.
           ENTRY                   ADDRESS         REF BY
           =====                   =======         ======
           __iar_Atexit            00012E5E        __iar_Tls_setupx__Isdst_rules (?xisdst)
               calls direct

    -------------------------------------------------------------------------
  LIBRARY MODULE, NAME : ?atoi

  SEGMENTS IN THE MODULE
  ======================
<CODE> 1 (was CODE)
  Relative segment, address: 00012E4E - 00012E57 (0xa bytes), align: 1
  Segment part 2.
           ENTRY                   ADDRESS         REF BY
           =====                   =======         ======
           atoi                    00012E4E        ota_sms (sms)
                                                   totalsms_count (sms)
               calls direct

    -------------------------------------------------------------------------
  LIBRARY MODULE, NAME : ?_exit

  SEGMENTS IN THE MODULE
  ======================
<CODE> 1 (was CODE)
  Relative segment, address: 00012D0E, align: 1
  Segment part 0.
           ENTRY                   ADDRESS         REF BY
           =====                   =======         ======
           _exit                   00012D0E        exit (?exit)
    -------------------------------------------------------------------------
<CODE> 1 (was CODE)
  Relative segment, address: 00012D0E - 00012D0F (0x2 bytes), align: 1
  Segment part 1.             Intra module refs:   __cstart_call_dtors
    -------------------------------------------------------------------------
<CODE> 1 (was CODE)
  Relative segment, address: 00012D10 - 00012D13 (0x4 bytes), align: 1
  Segment part 2.
           ENTRY                   ADDRESS         REF BY
           =====                   =======         ======
           __cstart_call_dtors     00012D10        __record_needed_destruction (?cppinit)
    -------------------------------------------------------------------------
<CODE> 1 (was CODE)
  Relative segment, address: 00012D14 - 00012D15 (0x2 bytes), align: 1
  Segment part 5.             Intra module refs:   Segment part 1
    -------------------------------------------------------------------------
<CODE> 1 (was CODE)
  Relative segment, address: 00012D16 - 00012D19 (0x4 bytes), align: 1
  Segment part 6.             Intra module refs:   _exit

    -------------------------------------------------------------------------
  LIBRARY MODULE, NAME : ?cppinit

  SEGMENTS IN THE MODULE
  ======================
<CODE> 1 (was CODE)
  Relative segment, address: 00011C60 - 00011C97 (0x38 bytes), align: 1
  Segment part 5.
           ENTRY                   ADDRESS         REF BY
           =====                   =======         ======
           __alloc_record_needed_destruction
                                   00011C60        Segment part 3 (?atexit)
               calls direct
    -------------------------------------------------------------------------
DATA16_Z
  Relative segment, address: 2296 - 2297 (0x2 bytes), align: 1
  Segment part 2.             Intra module refs:   __call_dtors
                                                   __record_needed_destruction
    -------------------------------------------------------------------------
<CODE> 1 (was CODE)
  Relative segment, address: 000120B4 - 000120D9 (0x26 bytes), align: 1
  Segment part 4.             Intra module refs:   __alloc_record_needed_destruction
           ENTRY                   ADDRESS         REF BY
           =====                   =======         ======
           __record_needed_destruction
                                   000120B4 
               calls direct
    -------------------------------------------------------------------------
<CODE> 1 (was CODE)
  Relative segment, address: 000120DA - 000120FF (0x26 bytes), align: 1
  Segment part 6.
           ENTRY                   ADDRESS         REF BY
           =====                   =======         ======
           __call_dtors            000120DA        __cstart_call_dtors (?_exit)
               calls indirect

    -------------------------------------------------------------------------
  LIBRARY MODULE, NAME : ?cstart

  SEGMENTS IN THE MODULE
  ======================
CSTACK
  Relative segment, address: 5360, align: 1
  Segment part 1.
    -------------------------------------------------------------------------
DATA16_Z
  Relative segment, address: 2298, align: 1
  Segment part 2.
    -------------------------------------------------------------------------
DATA16_I
  Relative segment, address: 2142, align: 1
  Segment part 3.
    -------------------------------------------------------------------------
DATA16_ID
  Relative segment, address: 6A0E, align: 1
  Segment part 4.
    -------------------------------------------------------------------------
CODE_I
  Relative segment, address: 2B5A, align: 1
  Segment part 5.
    -------------------------------------------------------------------------
CODE_ID
  Relative segment, address: 00012FE6, align: 1
  Segment part 6.
    -------------------------------------------------------------------------
DATA20_Z
  Relative segment, address: 2B5A, align: 1
  Segment part 7.
    -------------------------------------------------------------------------
DATA20_I
  Relative segment, address: 2B5A, align: 1
  Segment part 8.
    -------------------------------------------------------------------------
DATA20_ID
  Relative segment, address: 00012FE6, align: 1
  Segment part 9.
    -------------------------------------------------------------------------
DATA20_C
  Relative segment, address: 00012FE6, align: 1
  Segment part 10.
    -------------------------------------------------------------------------
DATA20_N
  Relative segment, address: 2B5A, align: 1
  Segment part 12.
    -------------------------------------------------------------------------
CSTART
  Relative segment, address: 6AAA - 6AAD (0x4 bytes), align: 1
  Segment part 15.
           ENTRY                   ADDRESS         REF BY
           =====                   =======         ======
           __program_start         6AAA            ?reset_vector (?reset_vector)
                                                   Absolute parts (?ABS_ENTRY_MOD)
           ?cstart_begin           6AAA 
    -------------------------------------------------------------------------
CSTART
  Relative segment, address: 6AAE - 6AB9 (0xc bytes), align: 1
  Segment part 19.
           ENTRY                   ADDRESS         REF BY
           =====                   =======         ======
           ?cstart_init_zero       6AAE            A0tempdegC (temperature)
                                                   GSM_buffer (modem_uart)
                                                   Segment part 2 (?cppinit)
                                                   Segment part 2 (?localtim)
                                                   Segment part 2 (?strtok)
                                                   Segment part 2 (?xgetmemchunk)
                                                   Segment part 2 (?xisdst)
                                                   Segment part 4 (?localtim)
                                                   Segment part 4 (?xisdst)
                                                   Segment part 4 (?xttotm)
                                                   Segment part 5 (?xisdst)
                                                   _Locale_Profile (?setlocale)
                                                   __data16_Aldata (?xxmemxmalloc)
                                                   __iar_Errno (?errno)
                                                   __iar_Tls_setup__IsdstStr (?setlocale)
                                                   __iar_Tls_setup__Locale_Profile (?setlocale)
                                                   __iar_Tls_setup__Locale_lconv (?localeconv)
                                                   __iar_Tls_setup__TzoneStr (?setlocale)
                                                   al_flag (config)
                                                   ccid (modem)
                                                   charger_con (temperature)
                                                   charger_con2 (temperature)
                                                   check_data_crc::crc (fridge_data)
                                                   check_internet::retry_count (modem)
                                                   debug_tmp_buff (spi_flash)
                                                   device_imei (modem)
                                                   diag_buff_len (debug)
                                                   diag_command (debug)
                                                   diagnosis_buff (debug)
                                                   dur_cold (config)
                                                   dur_hot (config)
                                                   dvalue (temperature)
                                                   epoch_seconds (timer)
                                                   flags (main_system)
                                                   flash_memory (spi_flash)
                                                   fridge_buffer (fridge_uart)
                                                   fridge_index (fridge_uart)
                                                   g_fEventQueueInitialized (events)
                                                   g_iRunning (main_system)
                                                   g_rtcCalendarTime (rtc)
                                                   g_tmCurrTime (globals)
                                                   g_uch_status (main_system)
                                                   gsm_fw (modem)
                                                   iMainSleep (events)
                                                   iMinuteTick (rtc)
                                                   iSecondTick (rtc)
                                                   image_crc (sms)
                                                   local_storage_buff (spi_flash)
                                                   ota_url (sms)
                                                   parse_diag_command::config_command (debug)
                                                   parse_diag_command::modem_command (debug)
                                                   parse_diag_command::ota_check (debug)
                                                   rec_buffer_index (modem_uart)
                                                   rtime (main_system)
                                                   sensorId (config)
                                                   temp (temperature)
                                                   temp_cold_float (config)
                                                   temp_data (temperature)
                                                   temp_hot_float (config)
                                                   temper (temperature)
                                                   uart (modem_uart)
                                                   wake_gsm (modem)
    -------------------------------------------------------------------------
CSTART
  Relative segment, address: 6ABA - 6AC9 (0x10 bytes), align: 1
  Segment part 20.
           ENTRY                   ADDRESS         REF BY
           =====                   =======         ======
           ?cstart_init_copy       6ABA            _IsdstStr (?setlocale)
                                                   _Locale_lconv (?localeconv)
                                                   _TzoneStr (?setlocale)
                                                   check_battery_alarm::batt_health_check (device_alarms)
                                                   device_apn (modem)
                                                   fw_version (ota)
                                                   g_iSystemSetup (config)
                                                   g_keyval (config)
                                                   g_pDevCfg (config)
                                                   g_pSysCfg (config)
                                                   g_pSysState (state_machine)
                                                   g_szAppModeStrings (config)
                                                   iDeadCountdown (rtc)
                                                   slaveadr (temperature)
                                                   temp_disconnt (temperature)
    -------------------------------------------------------------------------
CSTART
  Relative segment, address: 6ACA - 6AD1 (0x8 bytes), align: 1
  Segment part 26.            Intra module refs:   Segment part 15
           ENTRY                   ADDRESS         REF BY
           =====                   =======         ======
           ?cstart_call_main       6ACA 
           ?cstart_end             6AD2 
    -------------------------------------------------------------------------
CODE_ID
  Relative segment, address: 00012FE6, align: 1
  Segment part 27.            Intra module refs:   Segment part 5

    -------------------------------------------------------------------------
  LIBRARY MODULE, NAME : ?reset_vector

  SEGMENTS IN THE MODULE
  ======================
RESET
  Relative segment, address: C3FE - C3FF (0x2 bytes), align: 1
  Segment part 0.
           ENTRY                   ADDRESS         REF BY
           =====                   =======         ======
           ?reset_vector           C3FE            Segment part 15 (?cstart)

    -------------------------------------------------------------------------
  LIBRARY MODULE, NAME : ?div64i

  SEGMENTS IN THE MODULE
  ======================
<CODE> 1 (was CODE)
  Relative segment, address: 00010432 - 000104D7 (0xa6 bytes), align: 1
  Segment part 2.
           ENTRY                   ADDRESS         REF BY
           =====                   =======         ======
           _Div64u                 00010432        _LitobFull (?xprintffull)
    -------------------------------------------------------------------------
<CODE> 1 (was CODE)
  Relative segment, address: 000124F2 - 0001250B (0x1a bytes), align: 1
  Segment part 4.             Intra module refs:   _Div64u

    -------------------------------------------------------------------------
  LIBRARY MODULE, NAME : ?div

  SEGMENTS IN THE MODULE
  ======================
<CODE> 1 (was CODE)
  Relative segment, address: 0001265C - 00012671 (0x16 bytes), align: 1
  Segment part 0.
           ENTRY                   ADDRESS         REF BY
           =====                   =======         ======
           div                     0001265C        _GenldFull (?xprintffull)

    -------------------------------------------------------------------------
  LIBRARY MODULE, NAME : ?errno

  SEGMENTS IN THE MODULE
  ======================
DATA16_Z
  Relative segment, address: 2298 - 2299 (0x2 bytes), align: 1
  Segment part 2.
           ENTRY                   ADDRESS         REF BY
           =====                   =======         ======
           __iar_Errno             2298            __iar_Dtentox (?xdtento)
                                                   __iar_Log_small (?xlog_small)
                                                   __iar_Stolx (?xstol)
                                                   __iar_Stoulx (?xstoul)

    -------------------------------------------------------------------------
  LIBRARY MODULE, NAME : ?exit

  SEGMENTS IN THE MODULE
  ======================
<CODE> 1 (was CODE)
  Relative segment, address: 00012FCC - 00012FCF (0x4 bytes), align: 1
  Segment part 2.
           ENTRY                   ADDRESS         REF BY
           =====                   =======         ======
           exit                    00012FCC        Segment part 26 (?cstart)
               calls direct

    -------------------------------------------------------------------------
  LIBRARY MODULE, NAME : ?Mul32fHw32

  SEGMENTS IN THE MODULE
  ======================
<CODE,LOW_MEM> 1 (was CODE)
  Relative segment, address: B94C - BA61 (0x116 bytes), align: 1
  Segment part 0.
           ENTRY                   ADDRESS         REF BY
           =====                   =======         ======
           ?Mul32fHw32             B94C            ?Subroutine22 (temperature)
                                                   ?Subroutine5 (temperature)
                                                   Segment part 4 (?xstod)
                                                   Segment part 6 (?xdtento)
                                                   _LdtobFull (?xprintffull)
                                                   __iar_Log_small (?xlog_small)
                                                   check_radio_signal (modem)
                                                   dmul (?xdtento)
                                                   encode (encode)
                                                   getFloatNumber2Text (stringutils)
                                                   i2c_temperature (temperature)
                                                   pow_ (temperature)
                                                   resistance_to_temperature (temperature)
                                                   scale (?xprintffull)
                                                   setvalue (config)
                                                   temperature_subsampling_calculate (temperature)

    -------------------------------------------------------------------------
  LIBRARY MODULE, NAME : ?free

  SEGMENTS IN THE MODULE
  ======================
<CODE> 1 (was CODE)
  Relative segment, address: 00012FE0 - 00012FE3 (0x4 bytes), align: 1
  Segment part 2.
           ENTRY                   ADDRESS         REF BY
           =====                   =======         ======
           free                    00012FE0        _Getdst (?xgetdst)
               calls direct

    -------------------------------------------------------------------------
  LIBRARY MODULE, NAME : ?getzone

  SEGMENTS IN THE MODULE
  ======================
<CODE> 1 (was CODE)
  Relative segment, address: 00012FA8 - 00012FAD (0x6 bytes), align: 1
  Segment part 3.
           ENTRY                   ADDRESS         REF BY
           =====                   =======         ======
           __getzone               00012FA8        _Tzoff (?localtim)
                                                   __iar_Isdst32 (?xisdst)
    -------------------------------------------------------------------------
DATA16_C
  Relative segment, address: 695C - 695D (0x2 bytes), align: 0
  Segment part 2.             Intra module refs:   __getzone

    -------------------------------------------------------------------------
  LIBRARY MODULE, NAME : ?Cast32f32i

  SEGMENTS IN THE MODULE
  ======================
<CODE> 1 (was CODE)
  Relative segment, address: 000107EC - 000107FF (0x14 bytes), align: 1
  Segment part 0.
           ENTRY                   ADDRESS         REF BY
           =====                   =======         ======
           _Cast32sto32f           000107EC        ?Subroutine1 (encode)
                                                   ?Subroutine2 (stringutils)
                                                   Segment part 3 (?xstod)
                                                   Segment part 4 (?xstod)
                                                   _LdtobFull (?xprintffull)
                                                   __iar_Log_small (?xlog_small)
                                                   alarm_test_sensor (alarms)
                                                   check_radio_signal (modem)
                                                   i2c_temperature (temperature)
                                                   setvalue (config)
                                                   temp_check (temperature)
                                                   temperature_subsampling_calculate (temperature)
    -------------------------------------------------------------------------
<CODE> 1 (was CODE)
  Relative segment, address: 00010800 - 0001087D (0x7e bytes), align: 1
  Segment part 1.             Intra module refs:   _Cast32sto32f
           ENTRY                   ADDRESS         REF BY
           =====                   =======         ======
           _Cast32uto32f           00010800        _LdtobFull (?xprintffull)
                                                   i2c_temperature (temperature)
                                                   temperature_subsampling_calculate (temperature)

    -------------------------------------------------------------------------
  LIBRARY MODULE, NAME : _Cast32fto32u

  SEGMENTS IN THE MODULE
  ======================
<CODE> 1 (was CODE)
  Relative segment, address: 00012CEA - 00012CF5 (0xc bytes), align: 1
  Segment part 0.
           ENTRY                   ADDRESS         REF BY
           =====                   =======         ======
           _Cast32fto32u           00012CEA        _LdtobFull (?xprintffull)

    -------------------------------------------------------------------------
  LIBRARY MODULE, NAME : _Cast32fto32s

  SEGMENTS IN THE MODULE
  ======================
<CODE> 1 (was CODE)
  Relative segment, address: 00011D6C - 00011D9D (0x32 bytes), align: 1
  Segment part 0.
           ENTRY                   ADDRESS         REF BY
           =====                   =======         ======
           _Cast32fto32s           00011D6C        _LdtobFull (?xprintffull)
                                                   check_radio_signal (modem)
                                                   encode (encode)
                                                   getFloatNumber2Text (stringutils)
                                                   setvalue (config)

    -------------------------------------------------------------------------
  LIBRARY MODULE, NAME : ?FLT_Extract

  SEGMENTS IN THE MODULE
  ======================
<CODE> 1 (was CODE)
  Relative segment, address: 000117DA - 00011825 (0x4c bytes), align: 1
  Segment part 0.
           ENTRY                   ADDRESS         REF BY
           =====                   =======         ======
           ?FLT_Extract            000117DA        _Cast32fto32s (_Cast32fto32s)
                                                   _Cast32fto32u (_Cast32fto32u)

    -------------------------------------------------------------------------
  LIBRARY MODULE, NAME : ?FLT_EQ

  SEGMENTS IN THE MODULE
  ======================
<CODE> 1 (was CODE)
  Relative segment, address: 00011E32 - 00011E61 (0x30 bytes), align: 1
  Segment part 0.
           ENTRY                   ADDRESS         REF BY
           =====                   =======         ======
           ?FLT_EQ                 00011E32        ?Subroutine11 (temperature)
                                                   __iar_Dtentox (?xdtento)

    -------------------------------------------------------------------------
  LIBRARY MODULE, NAME : ?FLT_GE

  SEGMENTS IN THE MODULE
  ======================
<CODE> 1 (was CODE)
  Relative segment, address: 000114A4 - 000114F9 (0x56 bytes), align: 1
  Segment part 0.
           ENTRY                   ADDRESS         REF BY
           =====                   =======         ======
           ?FLT_GE                 000114A4        ?Subroutine14 (temperature)
                                                   ?Subroutine18 (temperature)
                                                   ?Subroutine19 (temperature)
                                                   ?Subroutine20 (temperature)
                                                   _LdtobFull (?xprintffull)
                                                   alarm_sms (alarms)
                                                   alarm_test_sensor (alarms)
                                                   encode (encode)
                                                   getFloatNumber2Text (stringutils)
                                                   i2c_temperature (temperature)
                                                   setvalue (config)
                                                   temperature_subsampling_calculate (temperature)

    -------------------------------------------------------------------------
  LIBRARY MODULE, NAME : ?FLT_LT

  SEGMENTS IN THE MODULE
  ======================
<CODE> 1 (was CODE)
  Relative segment, address: 000115F8 - 00011649 (0x52 bytes), align: 1
  Segment part 0.
           ENTRY                   ADDRESS         REF BY
           =====                   =======         ======
           ?FLT_LT                 000115F8        ?Subroutine13 (temperature)
                                                   ?Subroutine15 (temperature)
                                                   ?Subroutine16 (temperature)
                                                   ?Subroutine17 (temperature)
                                                   Segment part 24 (?xprintffull)
                                                   __iar_Log_small (?xlog_small)
                                                   alarm_test_sensor (alarms)
                                                   encode (encode)
                                                   getFloatNumber2Text (stringutils)
                                                   i2c_temperature (temperature)
                                                   setvalue (config)
                                                   temperature_subsampling_calculate (temperature)

    -------------------------------------------------------------------------
  LIBRARY MODULE, NAME : _Div32f

  SEGMENTS IN THE MODULE
  ======================
<CODE,LOW_MEM> 1 (was CODE)
  Relative segment, address: B278 - B3A7 (0x130 bytes), align: 1
  Segment part 0.
           ENTRY                   ADDRESS         REF BY
           =====                   =======         ======
           _Div32f                 B278            _LdtobFull (?xprintffull)
                                                   __iar_Dtentox (?xdtento)
                                                   __iar_Log_small (?xlog_small)
                                                   check_radio_signal (modem)
                                                   resistance_to_temperature (temperature)
                                                   temp_check (temperature)
                                                   temperature_subsampling_calculate (temperature)

    -------------------------------------------------------------------------
  LIBRARY MODULE, NAME : _Add32f

  SEGMENTS IN THE MODULE
  ======================
<CODE,LOW_MEM> 1 (was CODE)
  Relative segment, address: A57A - A57D (0x4 bytes), align: 1
  Segment part 0.
           ENTRY                   ADDRESS         REF BY
           =====                   =======         ======
           _Sub32f                 A57A            _LdtobFull (?xprintffull)
                                                   encode (encode)
                                                   getFloatNumber2Text (stringutils)
                                                   i2c_temperature (temperature)
                                                   setvalue (config)
                                                   temperature_subsampling_calculate (temperature)
    -------------------------------------------------------------------------
<CODE,LOW_MEM> 1 (was CODE)
  Relative segment, address: A57E - A6DD (0x160 bytes), align: 1
  Segment part 1.             Intra module refs:   _Sub32f
           ENTRY                   ADDRESS         REF BY
           =====                   =======         ======
           _Add32f                 A57E            ?Subroutine22 (temperature)
                                                   ?Subroutine5 (temperature)
                                                   ?Subroutine6 (temperature)
                                                   Segment part 4 (?xstod)
                                                   __iar_Log_small (?xlog_small)
                                                   i2c_temperature (temperature)
                                                   resistance_to_temperature (temperature)
                                                   temp_check (temperature)

    -------------------------------------------------------------------------
  LIBRARY MODULE, NAME : ?isdigit

  SEGMENTS IN THE MODULE
  ======================
<CODE> 1 (was CODE)
  Relative segment, address: 00012B10 - 00012B1D (0xe bytes), align: 1
  Segment part 2.
           ENTRY                   ADDRESS         REF BY
           =====                   =======         ======
           isdigit                 00012B10        Segment part 4 (?xstoflt)
                                                   _Getdst (?xgetdst)
                                                   _Stopfx (?xstopfx)
                                                   getint (?xgetdst)

    -------------------------------------------------------------------------
  LIBRARY MODULE, NAME : ?isxxx

  SEGMENTS IN THE MODULE
  ======================
<CODE> 1 (was CODE)
  Relative segment, address: 00012B1E - 00012B2B (0xe bytes), align: 1
  Segment part 2.
           ENTRY                   ADDRESS         REF BY
           =====                   =======         ======
           isalpha                 00012B1E        _Stopfx (?xstopfx)
               calls direct
    -------------------------------------------------------------------------
<CODE> 1 (was CODE)
  Relative segment, address: 00012CAE - 00012CB9 (0xc bytes), align: 1
  Segment part 6.             Intra module refs:   isalpha
                                                   isspace
    -------------------------------------------------------------------------
<CODE> 1 (was CODE)
  Relative segment, address: 00012B3A - 00012B47 (0xe bytes), align: 1
  Segment part 7.
           ENTRY                   ADDRESS         REF BY
           =====                   =======         ======
           isspace                 00012B3A        _Stopfx (?xstopfx)
                                                   __iar_Stolx (?xstol)
                                                   __iar_Stoulx (?xstoul)
               calls direct

    -------------------------------------------------------------------------
  LIBRARY MODULE, NAME : ?localeconv

  SEGMENTS IN THE MODULE
  ======================
DATA16_I
  Relative segment, address: 2142 - 216F (0x2e bytes), align: 1
  Segment part 6.             Intra module refs:   localeconv
           ENTRY                   ADDRESS         REF BY
           =====                   =======         ======
           _Locale_lconv           2142 
    -------------------------------------------------------------------------
DATA16_Z
  Relative segment, address: 229A - 229D (0x4 bytes), align: 1
  Segment part 8.             Intra module refs:   localeconv
           ENTRY                   ADDRESS         REF BY
           =====                   =======         ======
           __iar_Tls_setup__Locale_lconv
                                   229A 
    -------------------------------------------------------------------------
<CODE> 1 (was CODE)
  Relative segment, address: 00012AD0 - 00012ADF (0x10 bytes), align: 1
  Segment part 9.
           ENTRY                   ADDRESS         REF BY
           =====                   =======         ======
           localeconv              00012AD0        _GenldFull (?xprintffull)
                                                   _Stoflt (?xstoflt)
                                                   _Stoxflt (?xstoxflt)
               calls indirect
    -------------------------------------------------------------------------
DATA16_ID
  Relative segment, address: 6A0E - 6A3B (0x2e bytes), align: 1
  Segment part 7.             Intra module refs:   _Locale_lconv
    -------------------------------------------------------------------------
DATA16_C
  Relative segment, address: 695E - 695E (0x1 bytes), align: 0
  Segment part 2.             Intra module refs:   Segment part 7
    -------------------------------------------------------------------------
DATA16_C
  Relative segment, address: 695F - 6960 (0x2 bytes), align: 0
  Segment part 3.             Intra module refs:   Segment part 7
    -------------------------------------------------------------------------
DATA16_C
  Relative segment, address: 6961 - 6966 (0x6 bytes), align: 0
  Segment part 4.             Intra module refs:   Segment part 7
    -------------------------------------------------------------------------
DATA16_C
  Relative segment, address: 6967 - 696B (0x5 bytes), align: 0
  Segment part 5.             Intra module refs:   Segment part 7

    -------------------------------------------------------------------------
  LIBRARY MODULE, NAME : ?localtim

  SEGMENTS IN THE MODULE
  ======================
DATA16_Z
  Relative segment, address: 229E - 229F (0x2 bytes), align: 1
  Segment part 2.             Intra module refs:   _Tzoff
    -------------------------------------------------------------------------
DATA16_Z
  Relative segment, address: 22A0 - 22A3 (0x4 bytes), align: 1
  Segment part 4.             Intra module refs:   _Tzoff
    -------------------------------------------------------------------------
<CODE> 1 (was CODE)
  Relative segment, address: 00010230 - 000102DD (0xae bytes), align: 1
  Segment part 6.
           ENTRY                   ADDRESS         REF BY
           =====                   =======         ======
           _Tzoff                  00010230        __mktime32 (?mktime)
               calls direct and indirect

    -------------------------------------------------------------------------
  LIBRARY MODULE, NAME : ?malloc

  SEGMENTS IN THE MODULE
  ======================
<CODE> 1 (was CODE)
  Relative segment, address: 00012FD0 - 00012FD3 (0x4 bytes), align: 1
  Segment part 2.
           ENTRY                   ADDRESS         REF BY
           =====                   =======         ======
           malloc                  00012FD0        _Getdst (?xgetdst)
                                                   __alloc_record_needed_destruction (?cppinit)
               calls direct

    -------------------------------------------------------------------------
  LIBRARY MODULE, NAME : ?DivMod816u

  SEGMENTS IN THE MODULE
  ======================
<CODE> 1 (was CODE)
  Relative segment, address: 0001256E - 00012585 (0x18 bytes), align: 1
  Segment part 1.
           ENTRY                   ADDRESS         REF BY
           =====                   =======         ======
           ?DivMod16u              0001256E        ?DivMod16s (?DivMod816s)
                                                   USCI_A0_ISR (debug)
                                                   USCI_A2_ISR (modem_uart)

    -------------------------------------------------------------------------
  LIBRARY MODULE, NAME : ?DivMod816s

  SEGMENTS IN THE MODULE
  ======================
<CODE> 1 (was CODE)
  Relative segment, address: 00011E02 - 00011E31 (0x30 bytes), align: 1
  Segment part 1.
           ENTRY                   ADDRESS         REF BY
           =====                   =======         ======
           ?DivMod16s              00011E02        Segment part 6 (?xstoflt)
                                                   Segment part 8 (?xstoxflt)
                                                   __iar_Daysto32 (?xttotm)
                                                   __iar_Isdst32 (?xisdst)
                                                   __mktime32 (?mktime)
                                                   div (?div)

    -------------------------------------------------------------------------
  LIBRARY MODULE, NAME : ?DivMod32u

  SEGMENTS IN THE MODULE
  ======================
<CODE> 1 (was CODE)
  Relative segment, address: 00011E62 - 00011E91 (0x30 bytes), align: 1
  Segment part 0.
           ENTRY                   ADDRESS         REF BY
           =====                   =======         ======
           ?DivMod32u              00011E62        ?DivMod32s (?DivMod32s)
                                                   ?Subroutine3 (stringutils)
                                                   _LdtobFull (?xprintffull)
                                                   __iar_Stoulx (?xstoul)
                                                   __iar_Ttotm32 (?xttotm)
                                                   itoa (spi_flash)

    -------------------------------------------------------------------------
  LIBRARY MODULE, NAME : ?DivMod32s

  SEGMENTS IN THE MODULE
  ======================
<CODE> 1 (was CODE)
  Relative segment, address: 000119FC - 00011A3B (0x40 bytes), align: 1
  Segment part 0.
           ENTRY                   ADDRESS         REF BY
           =====                   =======         ======
           ?DivMod32s              000119FC        _LdtobFull (?xprintffull)
                                                   _Tzoff (?localtim)
                                                   __iar_Isdst32 (?xisdst)
                                                   __iar_Ttotm32 (?xttotm)
                                                   __mktime32 (?mktime)
                                                   alarm_sms (alarms)
                                                   event_next (events)
                                                   led_blink (rtc)

    -------------------------------------------------------------------------
  LIBRARY MODULE, NAME : ?ShiftLeft32

  SEGMENTS IN THE MODULE
  ======================
<CODE> 1 (was CODE)
  Relative segment, address: 0001280A - 0001280D (0x4 bytes), align: 1
  Segment part 4.
           ENTRY                   ADDRESS         REF BY
           =====                   =======         ======
           ?ShiftLeft32_4          0001280A        _Stoxflt (?xstoxflt)
    -------------------------------------------------------------------------
<CODE> 1 (was CODE)
  Relative segment, address: 0001280E - 0001281B (0xe bytes), align: 1
  Segment part 5.             Intra module refs:   ?ShiftLeft32_4
           ENTRY                   ADDRESS         REF BY
           =====                   =======         ======
           ?ShiftLeft32_3          0001280E 

    -------------------------------------------------------------------------
  LIBRARY MODULE, NAME : ?ShiftLeft32_8n

  SEGMENTS IN THE MODULE
  ======================
<CODE> 1 (was CODE)
  Relative segment, address: 00012DB6 - 00012DC1 (0xc bytes), align: 1
  Segment part 6.
           ENTRY                   ADDRESS         REF BY
           =====                   =======         ======
           ?ShiftLeft32_8          00012DB6        ?Subroutine14 (spi_flash)

    -------------------------------------------------------------------------
  LIBRARY MODULE, NAME : ?ShiftRight32s

  SEGMENTS IN THE MODULE
  ======================
<CODE> 1 (was CODE)
  Relative segment, address: 00012852 - 00012855 (0x4 bytes), align: 1
  Segment part 4.
           ENTRY                   ADDRESS         REF BY
           =====                   =======         ======
           ?ShiftRight32s_4        00012852        _LdtobFull (?xprintffull)
    -------------------------------------------------------------------------
<CODE> 1 (was CODE)
  Relative segment, address: 00012856 - 00012859 (0x4 bytes), align: 1
  Segment part 5.             Intra module refs:   ?ShiftRight32s_4
           ENTRY                   ADDRESS         REF BY
           =====                   =======         ======
           ?ShiftRight32s_3        00012856 
    -------------------------------------------------------------------------
<CODE> 1 (was CODE)
  Relative segment, address: 0001285A - 00012863 (0xa bytes), align: 1
  Segment part 6.             Intra module refs:   ?ShiftRight32s_3
           ENTRY                   ADDRESS         REF BY
           =====                   =======         ======
           ?ShiftRight32s_2        0001285A 

    -------------------------------------------------------------------------
  LIBRARY MODULE, NAME : ?memchr

  SEGMENTS IN THE MODULE
  ======================
<CODE> 1 (was CODE)
  Relative segment, address: 00012FD4 - 00012FD7 (0x4 bytes), align: 1
  Segment part 3.             Intra module refs:   Segment part 10 (?xstoxflt)
           ENTRY                   ADDRESS         REF BY
           =====                   =======         ======
           memchr                  00012FD4 
               calls direct
    -------------------------------------------------------------------------
<CODE> 1 (was CODE)
  Relative segment, address: 00012738 - 0001274B (0x14 bytes), align: 1
  Segment part 2.             Intra module refs:   memchr
           ENTRY                   ADDRESS         REF BY
           =====                   =======         ======
           __iar_Memchr            00012738        _PrintfFull (?xprintffull)
                                                   __iar_Stoulx (?xstoul)

    -------------------------------------------------------------------------
  LIBRARY MODULE, NAME : ?memcpy

  SEGMENTS IN THE MODULE
  ======================
<CODE> 1 (was CODE)
  Relative segment, address: 000128E2 - 000128F3 (0x12 bytes), align: 1
  Segment part 2.
           ENTRY                   ADDRESS         REF BY
           =====                   =======         ======
           memcpy                  000128E2        Segment part 16 (?xprintffull)
                                                   _GenldFull (?xprintffull)
                                                   _LdtobFull (?xprintffull)
                                                   _PutstrFull (?xprintffull)
                                                   __data16_memcpy (?memzero)
                                                   get_sim_num (modem)
                                                   parse_imei (modem)
                                                   send_deviceready (modem)

    -------------------------------------------------------------------------
  LIBRARY MODULE, NAME : ?CopyMemoryBytes

  SEGMENTS IN THE MODULE
  ======================
<CODE> 1 (was CODE)
  Relative segment, address: 00012AB0 - 00012ABF (0x10 bytes), align: 1
  Segment part 0.
           ENTRY                   ADDRESS         REF BY
           =====                   =======         ======
           ?CopyMemoryBytes        00012AB0        encode (encode)
                                                   events_init (events)
                                                   temp_check (temperature)

    -------------------------------------------------------------------------
  LIBRARY MODULE, NAME : ?ClearMemoryBytes

  SEGMENTS IN THE MODULE
  ======================
<CODE> 1 (was CODE)
  Relative segment, address: 00012970 - 0001297F (0x10 bytes), align: 1
  Segment part 0.
           ENTRY                   ADDRESS         REF BY
           =====                   =======         ======
           ?ClearMemoryBytes       00012970        check_data_crc (fridge_data)
                                                   ota_process (ota)

    -------------------------------------------------------------------------
  LIBRARY MODULE, NAME : ?ClearMemoryWords

  SEGMENTS IN THE MODULE
  ======================
<CODE> 1 (was CODE)
  Relative segment, address: 00012990 - 0001299F (0x10 bytes), align: 1
  Segment part 0.
           ENTRY                   ADDRESS         REF BY
           =====                   =======         ======
           ?ClearMemoryWords       00012990        add_sec_in_date_time (packet_format)
                                                   temp_check (temperature)

    -------------------------------------------------------------------------
  LIBRARY MODULE, NAME : ?memset

  SEGMENTS IN THE MODULE
  ======================
<CODE> 1 (was CODE)
  Relative segment, address: 00012876 - 00012887 (0x12 bytes), align: 1
  Segment part 2.
           ENTRY                   ADDRESS         REF BY
           =====                   =======         ======
           memset                  00012876        ?Subroutine1 (ota)
                                                   ?Subroutine1 (stringutils)
                                                   ?Subroutine10 (spi_flash)
                                                   ?Subroutine14 (modem)
                                                   ?Subroutine15 (modem)
                                                   ?Subroutine16 (modem)
                                                   ?Subroutine2 (device_alarms)
                                                   ?Subroutine2 (file_system)
                                                   ?Subroutine3 (device_alarms)
                                                   ?Subroutine3 (packet_format)
                                                   ?Subroutine3 (temperature)
                                                   ?Subroutine7 (spi_flash)
                                                   ?Subroutine8 (temperature)
                                                   USCI_A1_ISR (fridge_uart)
                                                   ack_to_fridge (fridge_data)
                                                   alarm_test_sensor (alarms)
                                                   append_data_in_buffer (packet_format)
                                                   batt_getlevel (battery)
                                                   check_battery_alarm (device_alarms)
                                                   check_ccid (modem)
                                                   check_data_crc (fridge_data)
                                                   check_diagnosis_command (debug)
                                                   check_gsm_fw (modem)
                                                   check_radio_signal (modem)
                                                   config_parse_configuration_sms (config)
                                                   default_idx_values (spi_flash)
                                                   default_param_reset (config)
                                                   dev_sms_cofig (sms)
                                                   device_ready_http (packet_format)
                                                   events_init (events)
                                                   fridge_sampled_data (fridge_data)
                                                   getFloatNumber2Text (stringutils)
                                                   getSMSBufferHelper (stringutils)
                                                   get_local_time (packet_format)
                                                   i2c_temperature (temperature)
                                                   itoa (spi_flash)
                                                   ota_process (ota)
                                                   ota_sms (sms)
                                                   parse_base_station_info (modem)
                                                   parse_diag_command (debug)
                                                   parse_imei (modem)
                                                   parse_input_value_for_sms (packet_format)
                                                   read_alarm_packets (device_alarms)
                                                   read_apn (apn_config)
                                                   read_indexes (spi_flash)
                                                   read_packets (spi_flash)
                                                   send_cmd_wait (modem_uart)
                                                   send_data_to_server (packet_format)
                                                   send_sms (modem)
                                                   setvalue (config)
                                                   state_alarm_reset_sensors (state_machine)
                                                   state_init (state_machine)
                                                   temp_sampled_data (modem)
                                                   temperature_analog_to_digital_conversion (temperature)

    -------------------------------------------------------------------------
  LIBRARY MODULE, NAME : ?memzero

  SEGMENTS IN THE MODULE
  ======================
<CODE> 1 (was CODE)
  Relative segment, address: 000129F0 - 000129FF (0x10 bytes), align: 1
  Segment part 2.
           ENTRY                   ADDRESS         REF BY
           =====                   =======         ======
           __data16_memzero        000129F0        ?cstart_init_zero (?cstart)
    -------------------------------------------------------------------------
<CODE> 1 (was CODE)
  Relative segment, address: 00012FD8 - 00012FDB (0x4 bytes), align: 1
  Segment part 3.
           ENTRY                   ADDRESS         REF BY
           =====                   =======         ======
           __data16_memcpy         00012FD8        ?cstart_init_copy (?cstart)
               calls direct

    -------------------------------------------------------------------------
  LIBRARY MODULE, NAME : ?mktime

  SEGMENTS IN THE MODULE
  ======================
<CODE,LOW_MEM> 1 (was CODE)
  Relative segment, address: 9F6C - A0F9 (0x18e bytes), align: 1
  Segment part 2.
           ENTRY                   ADDRESS         REF BY
           =====                   =======         ======
           __mktime32              9F6C            add_sec_in_date_time (packet_format)
               calls direct
    -------------------------------------------------------------------------
<CODE> 1 (was CODE)
  Relative segment, address: 00012C60 - 00012C6D (0xe bytes), align: 1
  Segment part 3.             Intra module refs:   __mktime32

    -------------------------------------------------------------------------
  LIBRARY MODULE, NAME : ?Mul8Hw

  SEGMENTS IN THE MODULE
  ======================
<CODE> 1 (was CODE)
  Relative segment, address: 0001229A - 0001229D (0x4 bytes), align: 1
  Segment part 0.
           ENTRY                   ADDRESS         REF BY
           =====                   =======         ======
           ?Mul8Hw                 0001229A        _LitobFull (?xprintffull)
    -------------------------------------------------------------------------
<CODE> 1 (was CODE)
  Relative segment, address: 0001229E - 000122B9 (0x1c bytes), align: 1
  Segment part 1.             Intra module refs:   ?Mul8Hw
           ENTRY                   ADDRESS         REF BY
           =====                   =======         ======
           ?Mul16Hw                0001229E 
           ?Mul16to32uHw           0001229E        default_param_reset (config)

    -------------------------------------------------------------------------
  LIBRARY MODULE, NAME : ?Mul16to32sHw

  SEGMENTS IN THE MODULE
  ======================
<CODE> 1 (was CODE)
  Relative segment, address: 000123AA - 000123C5 (0x1c bytes), align: 1
  Segment part 0.
           ENTRY                   ADDRESS         REF BY
           =====                   =======         ======
           ?Mul16to32sHw           000123AA        ?Subroutine9 (config)
                                                   _LdtobFull (?xprintffull)
                                                   __iar_Isdst32 (?xisdst)
                                                   __iar_Ttotm32 (?xttotm)
                                                   __mktime32 (?mktime)

    -------------------------------------------------------------------------
  LIBRARY MODULE, NAME : ?Mul32Hw32

  SEGMENTS IN THE MODULE
  ======================
<CODE> 1 (was CODE)
  Relative segment, address: 0001214A - 0001216D (0x24 bytes), align: 1
  Segment part 0.
           ENTRY                   ADDRESS         REF BY
           =====                   =======         ======
           ?Mul32Hw32              0001214A        Segment part 3 (?xstoflt)
                                                   Segment part 8 (?xttotm)
                                                   _Stoxflt (?xstoxflt)
                                                   _Tzoff (?localtim)
                                                   __iar_Stoulx (?xstoul)
                                                   __mktime32 (?mktime)
                                                   alarm_test_sensor (alarms)
                                                   event_next (events)
                                                   events_register (events)
                                                   state_battery_level (state_machine)

    -------------------------------------------------------------------------
  LIBRARY MODULE, NAME : ?setlocale

  SEGMENTS IN THE MODULE
  ======================
DATA16_I
  Relative segment, address: 2170 - 2171 (0x2 bytes), align: 1
  Segment part 7.
           ENTRY                   ADDRESS         REF BY
           =====                   =======         ======
           _TzoneStr               2170            _Tzoff (?localtim)
                                                   __iar_Isdst32 (?xisdst)
    -------------------------------------------------------------------------
DATA16_Z
  Relative segment, address: 22A4 - 22A7 (0x4 bytes), align: 1
  Segment part 9.
           ENTRY                   ADDRESS         REF BY
           =====                   =======         ======
           __iar_Tls_setup__TzoneStr
                                   22A4            _Tzoff (?localtim)
                                                   __iar_Isdst32 (?xisdst)
    -------------------------------------------------------------------------
DATA16_I
  Relative segment, address: 2172 - 2173 (0x2 bytes), align: 1
  Segment part 10.
           ENTRY                   ADDRESS         REF BY
           =====                   =======         ======
           _IsdstStr               2172            __iar_Isdst32 (?xisdst)
    -------------------------------------------------------------------------
DATA16_Z
  Relative segment, address: 22A8 - 22AB (0x4 bytes), align: 1
  Segment part 12.
           ENTRY                   ADDRESS         REF BY
           =====                   =======         ======
           __iar_Tls_setup__IsdstStr
                                   22A8            __iar_Isdst32 (?xisdst)
    -------------------------------------------------------------------------
DATA16_Z
  Relative segment, address: 22AC - 22B9 (0xe bytes), align: 1
  Segment part 13.            Intra module refs:   _LocaleEncoding
                                                   _LocaleForCat
           ENTRY                   ADDRESS         REF BY
           =====                   =======         ======
           _Locale_Profile         22AC 
    -------------------------------------------------------------------------
DATA16_Z
  Relative segment, address: 22BA - 22BD (0x4 bytes), align: 1
  Segment part 14.            Intra module refs:   Segment part 25
           ENTRY                   ADDRESS         REF BY
           =====                   =======         ======
           __iar_Tls_setup__Locale_Profile
                                   22BA 
    -------------------------------------------------------------------------
DATA16_C
  Relative segment, address: 696C - 696C (0x1 bytes), align: 0
  Segment part 2.             Intra module refs:   Segment part 11
                                                   Segment part 8
    -------------------------------------------------------------------------
<CODE> 1 (was CODE)
  Relative segment, address: 000127E6 - 000127F7 (0x12 bytes), align: 1
  Segment part 20.
           ENTRY                   ADDRESS         REF BY
           =====                   =======         ======
           _LocaleForCat           000127E6        Segment part 6 (?isxxx)
                                                   tolower (?tolower)
               calls indirect
    -------------------------------------------------------------------------
<CODE> 1 (was CODE)
  Relative segment, address: 0001270C - 0001270F (0x4 bytes), align: 1
  Segment part 25.            Intra module refs:   _LocaleEncoding
                                                   _LocaleForCat
    -------------------------------------------------------------------------
<CODE> 1 (was CODE)
  Relative segment, address: 00012710 - 00012717 (0x8 bytes), align: 1
  Segment part 26.            Intra module refs:   Segment part 25
    -------------------------------------------------------------------------
<CODE> 1 (was CODE)
  Relative segment, address: 00012718 - 00012721 (0xa bytes), align: 1
  Segment part 21.
           ENTRY                   ADDRESS         REF BY
           =====                   =======         ======
           _LocaleEncoding         00012718        _Mbtowc (?xmbtowc)
                                                   _Wctomb (?xwctomb)
                                                   __iar_Mbcurmax (?xmbcurmax)
               calls indirect
    -------------------------------------------------------------------------
DATA16_ID
  Relative segment, address: 6A3C - 6A3D (0x2 bytes), align: 1
  Segment part 8.             Intra module refs:   _TzoneStr
    -------------------------------------------------------------------------
DATA16_ID
  Relative segment, address: 6A3E - 6A3F (0x2 bytes), align: 1
  Segment part 11.            Intra module refs:   _IsdstStr

    -------------------------------------------------------------------------
  LIBRARY MODULE, NAME : ?snprintf

  SEGMENTS IN THE MODULE
  ======================
<CODE> 1 (was CODE)
  Relative segment, address: 0001173C - 0001178B (0x50 bytes), align: 1
  Segment part 2.
           ENTRY                   ADDRESS         REF BY
           =====                   =======         ======
           snprintf                0001173C        check_ccid (modem)
                                                   check_gsm_fw (modem)
               calls direct

    -------------------------------------------------------------------------
  LIBRARY MODULE, NAME : ?sprintf

  SEGMENTS IN THE MODULE
  ======================
<CODE> 1 (was CODE)
  Relative segment, address: 00011BB0 - 00011BEB (0x3c bytes), align: 1
  Segment part 2.
           ENTRY                   ADDRESS         REF BY
           =====                   =======         ======
           sprintf                 00011BB0        Segment part 38 (ota)
                                                   ack_to_fridge (fridge_data)
                                                   alarm_packet (device_alarms)
                                                   alarm_sms (alarms)
                                                   append_data_in_buffer (packet_format)
                                                   check_battery_alarm (device_alarms)
                                                   check_data_crc (fridge_data)
                                                   check_sensor_alarm (device_alarms)
                                                   dev_sms_cofig (sms)
                                                   device_ready_http (packet_format)
                                                   fridge_sampled_data (fridge_data)
                                                   getFloatNumber2Text (stringutils)
                                                   get_local_time (packet_format)
                                                   gprs_config_dev (sms)
                                                   gsm_init (modem)
                                                   ota_process (ota)
                                                   parse_base_station_info (modem)
                                                   parse_diag_command (debug)
                                                   parse_input_value_for_sms (packet_format)
                                                   read_alarm_packets (device_alarms)
                                                   read_apn (apn_config)
                                                   read_apn_config (file_system)
                                                   read_file_size (file_system)
                                                   send_data (modem)
                                                   send_data_to_server (packet_format)
                                                   send_deviceready (modem)
                                                   temp_sampled_data (modem)
               calls direct

    -------------------------------------------------------------------------
  LIBRARY MODULE, NAME : ?strcat

  SEGMENTS IN THE MODULE
  ======================
<CODE> 1 (was CODE)
  Relative segment, address: 000125FE - 00012615 (0x18 bytes), align: 1
  Segment part 2.
           ENTRY                   ADDRESS         REF BY
           =====                   =======         ======
           strcat                  000125FE        Segment part 234 (modem)
                                                   ack_to_fridge (fridge_data)
                                                   append_data_in_buffer (packet_format)
                                                   check_data_crc (fridge_data)
                                                   check_sensor_alarm (device_alarms)
                                                   encode_value (encode)
                                                   fridge_sampled_data (fridge_data)
                                                   parse_input_value_for_sms (packet_format)
                                                   read_alarm_packets (device_alarms)
                                                   read_apn (apn_config)
                                                   send_deviceready (modem)
                                                   send_sms (modem)

    -------------------------------------------------------------------------
  LIBRARY MODULE, NAME : ?strchr

  SEGMENTS IN THE MODULE
  ======================
<CODE> 1 (was CODE)
  Relative segment, address: 00012B72 - 00012B7F (0xe bytes), align: 1
  Segment part 2.
           ENTRY                   ADDRESS         REF BY
           =====                   =======         ======
           __iar_Strchr            00012B72        _Getdst (?xgetdst)
                                                   _Gettime (?xgettime)
                                                   _PrintfFull (?xprintffull)
                                                   check_data_crc (fridge_data)
                                                   flash_memory_save_OTA_image (spi_flash)

    -------------------------------------------------------------------------
  LIBRARY MODULE, NAME : ?strcmp

  SEGMENTS IN THE MODULE
  ======================
<CODE> 1 (was CODE)
  Relative segment, address: 00012314 - 00012331 (0x1e bytes), align: 1
  Segment part 2.
           ENTRY                   ADDRESS         REF BY
           =====                   =======         ======
           strcmp                  00012314        check_data_crc (fridge_data)
                                                   default_param_reset (config)
                                                   ota_process (ota)
                                                   ota_sms (sms)
                                                   parse_diag_command (debug)
                                                   parse_input_value_for_sms (packet_format)
                                                   process_kvp (config)
                                                   temp_check (temperature)

    -------------------------------------------------------------------------
  LIBRARY MODULE, NAME : ?strcpy

  SEGMENTS IN THE MODULE
  ======================
<CODE> 1 (was CODE)
  Relative segment, address: 00012A90 - 00012A9F (0x10 bytes), align: 1
  Segment part 2.
           ENTRY                   ADDRESS         REF BY
           =====                   =======         ======
           strcpy                  00012A90        ack_to_fridge (fridge_data)
                                                   alarm_sms (alarms)
                                                   check_data_crc (fridge_data)
                                                   default_idx_values (spi_flash)
                                                   default_param_reset (config)
                                                   flash_memory_save_pkt_to_ram (spi_flash)
                                                   ota_process (ota)
                                                   ota_sms (sms)
                                                   parse_input_value_for_sms (packet_format)
                                                   send_sms (modem)
                                                   setvalue (config)

    -------------------------------------------------------------------------
  LIBRARY MODULE, NAME : ?strcspn

  SEGMENTS IN THE MODULE
  ======================
<CODE> 1 (was CODE)
  Relative segment, address: 00012192 - 000121B3 (0x22 bytes), align: 1
  Segment part 2.
           ENTRY                   ADDRESS         REF BY
           =====                   =======         ======
           strcspn                 00012192        config_parse_configuration_sms (config)
                                                   strtok (?strtok)

    -------------------------------------------------------------------------
  LIBRARY MODULE, NAME : ?strlen

  SEGMENTS IN THE MODULE
  ======================
<CODE> 1 (was CODE)
  Relative segment, address: 00012918 - 00012929 (0x12 bytes), align: 1
  Segment part 2.
           ENTRY                   ADDRESS         REF BY
           =====                   =======         ======
           strlen                  00012918        ?Subroutine1 (fridge_data)
                                                   ?Subroutine7 (modem)
                                                   _Gettime (?xgettime)
                                                   _PrintfFull (?xprintffull)
                                                   ack_to_fridge (fridge_data)
                                                   append_data_in_buffer (packet_format)
                                                   check_data_crc (fridge_data)
                                                   check_sensor_alarm (device_alarms)
                                                   config_parse_configuration_sms (config)
                                                   default_param_reset (config)
                                                   encode_value (encode)
                                                   ota_process (ota)
                                                   process_kvp (config)
                                                   read_apn (apn_config)
                                                   send_data_to_server (packet_format)
                                                   send_deviceready (modem)
                                                   send_sms (modem)
                                                   strrev (spi_flash)

    -------------------------------------------------------------------------
  LIBRARY MODULE, NAME : ?strncpy

  SEGMENTS IN THE MODULE
  ======================
<CODE> 1 (was CODE)
  Relative segment, address: 000121D6 - 000121F7 (0x22 bytes), align: 1
  Segment part 2.
           ENTRY                   ADDRESS         REF BY
           =====                   =======         ======
           strncpy                 000121D6        events_register (events)
                                                   get_local_time (packet_format)
                                                   get_sim_num (modem)

    -------------------------------------------------------------------------
  LIBRARY MODULE, NAME : ?strrchr

  SEGMENTS IN THE MODULE
  ======================
<CODE> 1 (was CODE)
  Relative segment, address: 00012864 - 00012875 (0x12 bytes), align: 1
  Segment part 2.
           ENTRY                   ADDRESS         REF BY
           =====                   =======         ======
           __iar_Strrchr           00012864        setvalue (config)

    -------------------------------------------------------------------------
  LIBRARY MODULE, NAME : ?strspn

  SEGMENTS IN THE MODULE
  ======================
<CODE> 1 (was CODE)
  Relative segment, address: 000121B4 - 000121D5 (0x22 bytes), align: 1
  Segment part 2.
           ENTRY                   ADDRESS         REF BY
           =====                   =======         ======
           strspn                  000121B4        strtok (?strtok)

    -------------------------------------------------------------------------
  LIBRARY MODULE, NAME : ?strstr

  SEGMENTS IN THE MODULE
  ======================
<CODE> 1 (was CODE)
  Relative segment, address: 00011D04 - 00011D37 (0x34 bytes), align: 1
  Segment part 2.
           ENTRY                   ADDRESS         REF BY
           =====                   =======         ======
           __iar_Strstr            00011D04        ?Subroutine4 (device_alarms)
                                                   ?Subroutine8 (packet_format)
                                                   ?Subroutine9 (packet_format)
                                                   Segment part 168 (modem)
                                                   check_data_crc (fridge_data)
                                                   config_parse_configuration_sms (config)
                                                   ota_process (ota)
                                                   ota_sms (sms)
                                                   parse_diag_command (debug)
                                                   parse_input_value_for_sms (packet_format)
                                                   read_apn (apn_config)
                                                   send_cmd_wait (modem_uart)
                                                   setvalue (config)
                                                   totalsms_count (sms)

    -------------------------------------------------------------------------
  LIBRARY MODULE, NAME : ?strtok

  SEGMENTS IN THE MODULE
  ======================
DATA16_Z
  Relative segment, address: 22BE - 22BF (0x2 bytes), align: 1
  Segment part 2.             Intra module refs:   strtok
    -------------------------------------------------------------------------
<CODE,LOW_MEM> 1 (was CODE)
  Relative segment, address: C31E - C369 (0x4c bytes), align: 1
  Segment part 4.
           ENTRY                   ADDRESS         REF BY
           =====                   =======         ======
           strtok                  C31E            ?Subroutine0 (sms)
                                                   ?Subroutine13 (modem)
                                                   check_data_crc (fridge_data)
                                                   config_parse_configuration_sms (config)
                                                   get_sim_num (modem)
                                                   ota_process (ota)
                                                   ota_sms (sms)
                                                   read_apn_config (file_system)
                                                   totalsms_count (sms)
               calls direct

    -------------------------------------------------------------------------
  LIBRARY MODULE, NAME : ?tolower

  SEGMENTS IN THE MODULE
  ======================
<CODE> 1 (was CODE)
  Relative segment, address: 0001279C - 000127AF (0x14 bytes), align: 1
  Segment part 2.
           ENTRY                   ADDRESS         REF BY
           =====                   =======         ======
           tolower                 0001279C        __iar_Stoulx (?xstoul)
               calls direct

    -------------------------------------------------------------------------
  LIBRARY MODULE, NAME : ?xdscale

  SEGMENTS IN THE MODULE
  ======================
<CODE> 1 (was CODE)
  Relative segment, address: 0001087E - 0001090B (0x8e bytes), align: 1
  Segment part 2.
           ENTRY                   ADDRESS         REF BY
           =====                   =======         ======
           __iar_Dscale            0001087E        _LdtobFull (?xprintffull)
                                                   __iar_Dtentox (?xdtento)
                                                   __iar_Log_small (?xlog_small)
                                                   __iar_Stodx (?xstod)
                                                   dmul (?xdtento)

    -------------------------------------------------------------------------
  LIBRARY MODULE, NAME : ?xdtento

  SEGMENTS IN THE MODULE
  ======================
DATA16_C
  Relative segment, address: 5406 - 541D (0x18 bytes), align: 1
  Segment part 2.             Intra module refs:   Segment part 6
    -------------------------------------------------------------------------
<CODE> 1 (was CODE)
  Relative segment, address: 00011AF6 - 00011B33 (0x3e bytes), align: 1
  Segment part 3.             Intra module refs:   Segment part 5
           LOCAL                   ADDRESS         
           =====                   =======         
           dmul                    00011AF6 
               calls direct
    -------------------------------------------------------------------------
<CODE,LOW_MEM> 1 (was CODE)
  Relative segment, address: B4D4 - B5F3 (0x120 bytes), align: 1
  Segment part 4.
           ENTRY                   ADDRESS         REF BY
           =====                   =======         ======
           __iar_Dtentox           B4D4            __iar_Stodx (?xstod)
               calls direct
    -------------------------------------------------------------------------
<CODE> 1 (was CODE)
  Relative segment, address: 00012AA0 - 00012AAF (0x10 bytes), align: 1
  Segment part 5.             Intra module refs:   __iar_Dtentox
    -------------------------------------------------------------------------
<CODE> 1 (was CODE)
  Relative segment, address: 00012332 - 0001234F (0x1e bytes), align: 1
  Segment part 6.             Intra module refs:   __iar_Dtentox

    -------------------------------------------------------------------------
  LIBRARY MODULE, NAME : ?xdunscal

  SEGMENTS IN THE MODULE
  ======================
<CODE> 1 (was CODE)
  Relative segment, address: 00011826 - 0001186B (0x46 bytes), align: 1
  Segment part 2.
           ENTRY                   ADDRESS         REF BY
           =====                   =======         ======
           __iar_Dunscale          00011826        _LdtobFull (?xprintffull)
                                                   __iar_Dtentox (?xdtento)
                                                   __iar_Log_small (?xlog_small)
                                                   dmul (?xdtento)

    -------------------------------------------------------------------------
  LIBRARY MODULE, NAME : ?xencoding_sb

  SEGMENTS IN THE MODULE
  ======================
<CODE> 1 (was CODE)
  Relative segment, address: 000123E2 - 000123FD (0x1c bytes), align: 1
  Segment part 4.
           ENTRY                   ADDRESS         REF BY
           =====                   =======         ======
           _EncodingSb_Wctomb      000123E2        _Wctomb (?xwctomb)
    -------------------------------------------------------------------------
<CODE> 1 (was CODE)
  Relative segment, address: 00011CCE - 00011D03 (0x36 bytes), align: 1
  Segment part 5.
           ENTRY                   ADDRESS         REF BY
           =====                   =======         ======
           _EncodingSb_Mbtowc      00011CCE        _Mbtowc (?xmbtowc)

    -------------------------------------------------------------------------
  LIBRARY MODULE, NAME : ?xgetdst

  SEGMENTS IN THE MODULE
  ======================
<CODE> 1 (was CODE)
  Relative segment, address: 00011E92 - 00011EC1 (0x30 bytes), align: 1
  Segment part 2.             Intra module refs:   _Getdst
           LOCAL                   ADDRESS         
           =====                   =======         
           getint                  00011E92 
               calls direct
    -------------------------------------------------------------------------
<CODE,LOW_MEM> 1 (was CODE)
  Relative segment, address: B714 - B82F (0x11c bytes), align: 1
  Segment part 3.
           ENTRY                   ADDRESS         REF BY
           =====                   =======         ======
           _Getdst                 B714            __iar_Isdst32 (?xisdst)
               calls direct

    -------------------------------------------------------------------------
  LIBRARY MODULE, NAME : ?xgetmemchunk

  SEGMENTS IN THE MODULE
  ======================
<CODE> 1 (was CODE)
  Relative segment, address: 0001236E - 0001238B (0x1e bytes), align: 1
  Segment part 4.
           ENTRY                   ADDRESS         REF BY
           =====                   =======         ======
           __data16_GetMemChunk    0001236E        __data16_findmem (?xxmemxmalloc)
    -------------------------------------------------------------------------
DATA16_Z
  Relative segment, address: 22C0 - 22C1 (0x2 bytes), align: 1
  Segment part 2.             Intra module refs:   __data16_GetMemChunk
    -------------------------------------------------------------------------
DATA16_HEAP
  Relative segment, address: 2ABA, align: 1
  Segment part 6.

    -------------------------------------------------------------------------
  LIBRARY MODULE, NAME : ?xgettime

  SEGMENTS IN THE MODULE
  ======================
<CODE> 1 (was CODE)
  Relative segment, address: 000116EC - 0001173B (0x50 bytes), align: 1
  Segment part 2.
           ENTRY                   ADDRESS         REF BY
           =====                   =======         ======
           _Gettime                000116EC        _Tzoff (?localtim)
                                                   __iar_Isdst32 (?xisdst)
               calls direct

    -------------------------------------------------------------------------
  LIBRARY MODULE, NAME : ?xisdst

  SEGMENTS IN THE MODULE
  ======================
DATA16_Z
  Relative segment, address: 22C2 - 22C3 (0x2 bytes), align: 1
  Segment part 2.             Intra module refs:   __iar_Isdst32
    -------------------------------------------------------------------------
<CODE> 1 (was CODE)
  Relative segment, address: 00012DE0 - 00012DE9 (0xa bytes), align: 1
  Segment part 8.             Intra module refs:   __iar_Tls_setupx__Isdst_rules
           LOCAL                   ADDRESS         
           =====                   =======         
           __iar_Tls_dtor__Isdst_rules
                                   00012DE0 
               calls direct
    -------------------------------------------------------------------------
<CODE> 1 (was CODE)
  Relative segment, address: 000126B4 - 000126C9 (0x16 bytes), align: 1
  Segment part 9.             Intra module refs:   __iar_Isdst32
           LOCAL                   ADDRESS         
           =====                   =======         
           __iar_Tls_setupx__Isdst_rules
                                   000126B4 
               calls direct
    -------------------------------------------------------------------------
DATA16_Z
  Relative segment, address: 22C4 - 22C5 (0x2 bytes), align: 1
  Segment part 4.             Intra module refs:   __iar_Isdst32
                                                   __iar_Tls_dtor__Isdst_rules
    -------------------------------------------------------------------------
DATA16_Z
  Relative segment, address: 2AB5 - 2AB5 (0x1 bytes), align: 0
  Segment part 5.             Intra module refs:   __iar_Tls_setupx__Isdst_rules
    -------------------------------------------------------------------------
<CODE,LOW_MEM> 1 (was CODE)
  Relative segment, address: A83E - A99B (0x15e bytes), align: 1
  Segment part 10.
           ENTRY                   ADDRESS         REF BY
           =====                   =======         ======
           __iar_Isdst32           A83E            __iar_Ttotm32 (?xttotm)
               calls direct and indirect

    -------------------------------------------------------------------------
  LIBRARY MODULE, NAME : ?xlocale_c

  SEGMENTS IN THE MODULE
  ======================
<CODE> 1 (was CODE)
  Relative segment, address: 00012B64 - 00012B71 (0xe bytes), align: 1
  Segment part 19.            Intra module refs:   _LocaleC_isalpha
           ENTRY                   ADDRESS         REF BY
           =====                   =======         ======
           _LocaleC_islower        00012B64 
    -------------------------------------------------------------------------
<CODE> 1 (was CODE)
  Relative segment, address: 00012C6E - 00012C7B (0xe bytes), align: 1
  Segment part 20.            Intra module refs:   _LocaleC_isalpha
                                                   _LocaleC_tolower
           ENTRY                   ADDRESS         REF BY
           =====                   =======         ======
           _LocaleC_isupper        00012C6E 
    -------------------------------------------------------------------------
<CODE> 1 (was CODE)
  Relative segment, address: 0001221A - 00012239 (0x20 bytes), align: 1
  Segment part 21.
           ENTRY                   ADDRESS         REF BY
           =====                   =======         ======
           _LocaleC_isalpha        0001221A        isalpha (?isxxx)
               calls direct
    -------------------------------------------------------------------------
<CODE> 1 (was CODE)
  Relative segment, address: 0001246E - 00012489 (0x1c bytes), align: 1
  Segment part 24.
           ENTRY                   ADDRESS         REF BY
           =====                   =======         ======
           _LocaleC_isspace        0001246E        isspace (?isxxx)
    -------------------------------------------------------------------------
<CODE> 1 (was CODE)
  Relative segment, address: 000126E0 - 000126F5 (0x16 bytes), align: 1
  Segment part 25.
           ENTRY                   ADDRESS         REF BY
           =====                   =======         ======
           _LocaleC_tolower        000126E0        tolower (?tolower)
               calls direct

    -------------------------------------------------------------------------
  LIBRARY MODULE, NAME : ?xlog_small

  SEGMENTS IN THE MODULE
  ======================
<CODE,LOW_MEM> 1 (was CODE)
  Relative segment, address: AAF0 - AC3F (0x150 bytes), align: 1
  Segment part 2.
           ENTRY                   ADDRESS         REF BY
           =====                   =======         ======
           __iar_Log_small         AAF0            resistance_to_temperature (temperature)
               calls direct

    -------------------------------------------------------------------------
  LIBRARY MODULE, NAME : ?xmbcurmax

  SEGMENTS IN THE MODULE
  ======================
<CODE> 1 (was CODE)
  Relative segment, address: 00012F22 - 00012F29 (0x8 bytes), align: 1
  Segment part 2.
           ENTRY                   ADDRESS         REF BY
           =====                   =======         ======
           __iar_Mbcurmax          00012F22        _PutstrFull (?xprintffull)
               calls direct

    -------------------------------------------------------------------------
  LIBRARY MODULE, NAME : ?xmbtowc

  SEGMENTS IN THE MODULE
  ======================
<CODE> 1 (was CODE)
  Relative segment, address: 0001238C - 000123A9 (0x1e bytes), align: 1
  Segment part 2.
           ENTRY                   ADDRESS         REF BY
           =====                   =======         ======
           _Mbtowc                 0001238C        _PrintfFull (?xprintffull)
               calls direct

    -------------------------------------------------------------------------
  LIBRARY MODULE, NAME : ?xprintffull

  SEGMENTS IN THE MODULE
  ======================
<CODE,LOW_MEM> 1 (was CODE)
  Relative segment, address: 753E - 7A49 (0x50c bytes), align: 1
  Segment part 27.
           ENTRY                   ADDRESS         REF BY
           =====                   =======         ======
           _PrintfFull             753E            snprintf (?snprintf)
                                                   sprintf (?sprintf)
               calls direct
    -------------------------------------------------------------------------
<CODE> 1 (was CODE)
  Relative segment, address: 00012D1A - 00012D25 (0xc bytes), align: 1
  Segment part 28.            Intra module refs:   _PrintfFull
    -------------------------------------------------------------------------
<CODE> 1 (was CODE)
  Relative segment, address: 000128BE - 000128CF (0x12 bytes), align: 1
  Segment part 29.            Intra module refs:   _PrintfFull
    -------------------------------------------------------------------------
<CODE> 1 (was CODE)
  Relative segment, address: 00012BE2 - 00012BEF (0xe bytes), align: 1
  Segment part 30.            Intra module refs:   _PrintfFull
    -------------------------------------------------------------------------
<CODE,LOW_MEM> 1 (was CODE)
  Relative segment, address: 8628 - 862D (0x6 bytes), align: 1
  Segment part 31.            Intra module refs:   Segment part 34
                                                   _PrintfFull
    -------------------------------------------------------------------------
<CODE,LOW_MEM> 1 (was CODE)
  Relative segment, address: 862E - 8633 (0x6 bytes), align: 1
  Segment part 32.            Intra module refs:   _PrintfFull
    -------------------------------------------------------------------------
<CODE,LOW_MEM> 1 (was CODE)
  Relative segment, address: 8634 - 863B (0x8 bytes), align: 1
  Segment part 33.            Intra module refs:   Segment part 32
                                                   Segment part 42
                                                   Segment part 43
                                                   pad
    -------------------------------------------------------------------------
<CODE,LOW_MEM> 1 (was CODE)
  Relative segment, address: 863C - 8645 (0xa bytes), align: 1
  Segment part 34.            Intra module refs:   _PrintfFull
    -------------------------------------------------------------------------
<CODE,LOW_MEM> 1 (was CODE)
  Relative segment, address: 8646 - 8653 (0xe bytes), align: 1
  Segment part 35.            Intra module refs:   Segment part 31
    -------------------------------------------------------------------------
<CODE,LOW_MEM> 1 (was CODE)
  Relative segment, address: 8654 - 8691 (0x3e bytes), align: 1
  Segment part 36.            Intra module refs:   _PrintfFull
    -------------------------------------------------------------------------
<CODE,LOW_MEM> 1 (was CODE)
  Relative segment, address: 8692 - 86BF (0x2e bytes), align: 1
  Segment part 37.            Intra module refs:   Segment part 35
                                                   _PutstrFull
           LOCAL                   ADDRESS         
           =====                   =======         
           pad                     8692 
               calls direct
    -------------------------------------------------------------------------
<CODE,LOW_MEM> 1 (was CODE)
  Relative segment, address: 86C0 - 88C9 (0x20a bytes), align: 1
  Segment part 38.            Intra module refs:   _PrintfFull
           LOCAL                   ADDRESS         
           =====                   =======         
           _PutstrFull             86C0 
               calls direct
    -------------------------------------------------------------------------
<CODE,LOW_MEM> 1 (was CODE)
  Relative segment, address: 88CA - 88D1 (0x8 bytes), align: 1
  Segment part 39.            Intra module refs:   _PutstrFull
    -------------------------------------------------------------------------
<CODE,LOW_MEM> 1 (was CODE)
  Relative segment, address: 88D2 - 88DB (0xa bytes), align: 1
  Segment part 40.            Intra module refs:   Segment part 39
                                                   _PutstrFull
    -------------------------------------------------------------------------
<CODE,LOW_MEM> 1 (was CODE)
  Relative segment, address: 88DC - 88E7 (0xc bytes), align: 1
  Segment part 41.            Intra module refs:   _PutstrFull
    -------------------------------------------------------------------------
<CODE,LOW_MEM> 1 (was CODE)
  Relative segment, address: 88E8 - 88EF (0x8 bytes), align: 1
  Segment part 42.            Intra module refs:   Segment part 41
                                                   _PutstrFull
    -------------------------------------------------------------------------
<CODE,LOW_MEM> 1 (was CODE)
  Relative segment, address: 88F0 - 88FD (0xe bytes), align: 1
  Segment part 43.            Intra module refs:   _PutstrFull
    -------------------------------------------------------------------------
<CODE> 1 (was CODE)
  Relative segment, address: 0001099A - 00010A23 (0x8a bytes), align: 1
  Segment part 10.            Intra module refs:   _PrintfFull
           LOCAL                   ADDRESS         
           =====                   =======         
           LoadInt                 0001099A 
    -------------------------------------------------------------------------
<CODE> 1 (was CODE)
  Relative segment, address: 00012C1A - 00012C27 (0xe bytes), align: 1
  Segment part 11.            Intra module refs:   LoadInt
    -------------------------------------------------------------------------
<CODE,LOW_MEM> 1 (was CODE)
  Relative segment, address: 9A70 - 9C2B (0x1bc bytes), align: 1
  Segment part 25.            Intra module refs:   _PrintfFull
           LOCAL                   ADDRESS         
           =====                   =======         
           _LitobFull              9A70 
               calls direct
    -------------------------------------------------------------------------
<CODE> 1 (was CODE)
  Relative segment, address: 000128D0 - 000128E1 (0x12 bytes), align: 1
  Segment part 26.            Intra module refs:   _LitobFull
    -------------------------------------------------------------------------
<CODE> 1 (was CODE)
  Relative segment, address: 0001197A - 000119BB (0x42 bytes), align: 1
  Segment part 18.            Intra module refs:   _LdtobFull
           LOCAL                   ADDRESS         
           =====                   =======         
           scale                   0001197A 
               calls direct
    -------------------------------------------------------------------------
<CODE,LOW_MEM> 1 (was CODE)
  Relative segment, address: 7F52 - 832D (0x3dc bytes), align: 1
  Segment part 19.            Intra module refs:   _PrintfFull
           LOCAL                   ADDRESS         
           =====                   =======         
           _LdtobFull              7F52 
               calls direct
    -------------------------------------------------------------------------
<CODE> 1 (was CODE)
  Relative segment, address: 00012FC0 - 00012FC5 (0x6 bytes), align: 1
  Segment part 20.            Intra module refs:   _LdtobFull
    -------------------------------------------------------------------------
<CODE> 1 (was CODE)
  Relative segment, address: 00012EC6 - 00012ECF (0xa bytes), align: 1
  Segment part 21.            Intra module refs:   Segment part 20
                                                   _LdtobFull
    -------------------------------------------------------------------------
<CODE> 1 (was CODE)
  Relative segment, address: 00012B48 - 00012B55 (0xe bytes), align: 1
  Segment part 22.            Intra module refs:   _LdtobFull
    -------------------------------------------------------------------------
<CODE> 1 (was CODE)
  Relative segment, address: 00012EDA - 00012EE3 (0xa bytes), align: 1
  Segment part 23.            Intra module refs:   _LdtobFull
    -------------------------------------------------------------------------
<CODE> 1 (was CODE)
  Relative segment, address: 00012AE0 - 00012AEF (0x10 bytes), align: 1
  Segment part 24.            Intra module refs:   _LdtobFull
    -------------------------------------------------------------------------
<CODE,LOW_MEM> 1 (was CODE)
  Relative segment, address: 8E54 - 90A9 (0x256 bytes), align: 1
  Segment part 12.            Intra module refs:   _LdtobFull
           LOCAL                   ADDRESS         
           =====                   =======         
           _GenldFull              8E54 
               calls direct
    -------------------------------------------------------------------------
<CODE> 1 (was CODE)
  Relative segment, address: 00012CC6 - 00012CD1 (0xc bytes), align: 1
  Segment part 13.            Intra module refs:   _GenldFull
    -------------------------------------------------------------------------
<CODE> 1 (was CODE)
  Relative segment, address: 00012EBC - 00012EC5 (0xa bytes), align: 1
  Segment part 14.            Intra module refs:   Segment part 13
                                                   _GenldFull
    -------------------------------------------------------------------------
<CODE> 1 (was CODE)
  Relative segment, address: 00012A30 - 00012A3F (0x10 bytes), align: 1
  Segment part 15.            Intra module refs:   _GenldFull
    -------------------------------------------------------------------------
<CODE> 1 (was CODE)
  Relative segment, address: 00012B9C - 00012BA9 (0xe bytes), align: 1
  Segment part 16.            Intra module refs:   Segment part 15
                                                   _GenldFull
    -------------------------------------------------------------------------
<CODE> 1 (was CODE)
  Relative segment, address: 000122D8 - 000122F5 (0x1e bytes), align: 1
  Segment part 17.            Intra module refs:   _GenldFull
    -------------------------------------------------------------------------
<CODE> 1 (was CODE)
  Relative segment, address: 00011EC2 - 00011EF1 (0x30 bytes), align: 1
  Segment part 44.            Intra module refs:   Segment part 33
           LOCAL                   ADDRESS         
           =====                   =======         
           _PutcharsFull           00011EC2 
               calls indirect
    -------------------------------------------------------------------------
DATA16_C
  Relative segment, address: 696D - 6973 (0x7 bytes), align: 0
  Segment part 3.             Intra module refs:   _PrintfFull
    -------------------------------------------------------------------------
DATA16_C
  Relative segment, address: 6974 - 6977 (0x4 bytes), align: 0
  Segment part 5.             Intra module refs:   _LdtobFull
    -------------------------------------------------------------------------
DATA16_C
  Relative segment, address: 6978 - 697B (0x4 bytes), align: 0
  Segment part 6.             Intra module refs:   _LdtobFull
    -------------------------------------------------------------------------
DATA16_C
  Relative segment, address: 697C - 697F (0x4 bytes), align: 0
  Segment part 7.             Intra module refs:   _LdtobFull
    -------------------------------------------------------------------------
DATA16_C
  Relative segment, address: 6980 - 6983 (0x4 bytes), align: 0
  Segment part 8.             Intra module refs:   _LdtobFull
    -------------------------------------------------------------------------
DATA16_C
  Relative segment, address: 6984 - 6985 (0x2 bytes), align: 0
  Segment part 9.             Intra module refs:   _GenldFull

    -------------------------------------------------------------------------
  LIBRARY MODULE, NAME : ?xsnprout

  SEGMENTS IN THE MODULE
  ======================
<CODE> 1 (was CODE)
  Relative segment, address: 000124D8 - 000124F1 (0x1a bytes), align: 1
  Segment part 2.
           ENTRY                   ADDRESS         REF BY
           =====                   =======         ======
           _SNProut                000124D8        snprintf (?snprintf)

    -------------------------------------------------------------------------
  LIBRARY MODULE, NAME : ?xsprout

  SEGMENTS IN THE MODULE
  ======================
<CODE> 1 (was CODE)
  Relative segment, address: 00012C8A - 00012C95 (0xc bytes), align: 1
  Segment part 2.
           ENTRY                   ADDRESS         REF BY
           =====                   =======         ======
           _SProut                 00012C8A        sprintf (?sprintf)

    -------------------------------------------------------------------------
  LIBRARY MODULE, NAME : ?xstod

  SEGMENTS IN THE MODULE
  ======================
<CODE,LOW_MEM> 1 (was CODE)
  Relative segment, address: AD84 - AEC3 (0x140 bytes), align: 1
  Segment part 2.             Intra module refs:   __iar_Stod
           ENTRY                   ADDRESS         REF BY
           =====                   =======         ======
           __iar_Stodx             AD84 
               calls direct
    -------------------------------------------------------------------------
<CODE> 1 (was CODE)
  Relative segment, address: 00012BD4 - 00012BE1 (0xe bytes), align: 1
  Segment part 3.             Intra module refs:   __iar_Stodx
    -------------------------------------------------------------------------
<CODE> 1 (was CODE)
  Relative segment, address: 00012436 - 00012451 (0x1c bytes), align: 1
  Segment part 4.             Intra module refs:   __iar_Stodx
    -------------------------------------------------------------------------
<CODE> 1 (was CODE)
  Relative segment, address: 00012DFE - 00012E07 (0xa bytes), align: 1
  Segment part 5.
           ENTRY                   ADDRESS         REF BY
           =====                   =======         ======
           __iar_Stod              00012DFE        ?Subroutine2 (encode)
                                                   parse_value_float (config)
                                                   setvalue (config)
                                                   temp_check (temperature)
               calls direct

    -------------------------------------------------------------------------
  LIBRARY MODULE, NAME : ?xstoflt

  SEGMENTS IN THE MODULE
  ======================
<CODE,LOW_MEM> 1 (was CODE)
  Relative segment, address: 92CE - 94DB (0x20e bytes), align: 1
  Segment part 2.
           ENTRY                   ADDRESS         REF BY
           =====                   =======         ======
           _Stoflt                 92CE            __iar_Stodx (?xstod)
               calls direct
    -------------------------------------------------------------------------
<CODE> 1 (was CODE)
  Relative segment, address: 00012E12 - 00012E1B (0xa bytes), align: 1
  Segment part 3.             Intra module refs:   _Stoflt
    -------------------------------------------------------------------------
<CODE> 1 (was CODE)
  Relative segment, address: 00012E1C - 00012E25 (0xa bytes), align: 1
  Segment part 4.             Intra module refs:   _Stoflt
    -------------------------------------------------------------------------
<CODE> 1 (was CODE)
  Relative segment, address: 00012E26 - 00012E2F (0xa bytes), align: 1
  Segment part 5.             Intra module refs:   _Stoflt
    -------------------------------------------------------------------------
<CODE> 1 (was CODE)
  Relative segment, address: 00012F7A - 00012F81 (0x8 bytes), align: 1
  Segment part 6.             Intra module refs:   _Stoflt
    -------------------------------------------------------------------------
<CODE> 1 (was CODE)
  Relative segment, address: 0001282E - 0001283F (0x12 bytes), align: 1
  Segment part 7.             Intra module refs:   _Stoflt

    -------------------------------------------------------------------------
  LIBRARY MODULE, NAME : ?xstol

  SEGMENTS IN THE MODULE
  ======================
<CODE> 1 (was CODE)
  Relative segment, address: 00010388 - 00010431 (0xaa bytes), align: 1
  Segment part 2.
           ENTRY                   ADDRESS         REF BY
           =====                   =======         ======
           __iar_Stolx             00010388        _Tzoff (?localtim)
                                                   ota_process (ota)
               calls direct

    -------------------------------------------------------------------------
  LIBRARY MODULE, NAME : ?xstopfx

  SEGMENTS IN THE MODULE
  ======================
<CODE,LOW_MEM> 1 (was CODE)
  Relative segment, address: B13E - B277 (0x13a bytes), align: 1
  Segment part 2.
           ENTRY                   ADDRESS         REF BY
           =====                   =======         ======
           _Stopfx                 B13E            __iar_Stodx (?xstod)
               calls direct

    -------------------------------------------------------------------------
  LIBRARY MODULE, NAME : ?xstoul

  SEGMENTS IN THE MODULE
  ======================
DATA16_C
  Relative segment, address: 6986 - 69AA (0x25 bytes), align: 0
  Segment part 2.             Intra module refs:   __iar_Stoulx
    -------------------------------------------------------------------------
DATA16_C
  Relative segment, address: 69AB - 69CF (0x25 bytes), align: 0
  Segment part 3.             Intra module refs:   __iar_Stoulx
    -------------------------------------------------------------------------
<CODE,LOW_MEM> 1 (was CODE)
  Relative segment, address: A404 - A579 (0x176 bytes), align: 1
  Segment part 4.             Intra module refs:   __iar_Stoul
           ENTRY                   ADDRESS         REF BY
           =====                   =======         ======
           __iar_Stoulx            A404            __iar_Stolx (?xstol)
               calls direct
    -------------------------------------------------------------------------
<CODE> 1 (was CODE)
  Relative segment, address: 00012BAA - 00012BB7 (0xe bytes), align: 1
  Segment part 5.             Intra module refs:   __iar_Stoulx
    -------------------------------------------------------------------------
<CODE> 1 (was CODE)
  Relative segment, address: 00012FA2 - 00012FA7 (0x6 bytes), align: 1
  Segment part 6.
           ENTRY                   ADDRESS         REF BY
           =====                   =======         ======
           __iar_Stoul             00012FA2        ?Subroutine1 (file_system)
                                                   ?Subroutine12 (config)
                                                   atoi (?atoi)
                                                   check_radio_signal (modem)
                                                   config_parse_configuration_sms (config)
                                                   get_local_time (packet_format)
                                                   ota_process (ota)
                                                   parse_value (config)
               calls direct

    -------------------------------------------------------------------------
  LIBRARY MODULE, NAME : ?xstoxflt

  SEGMENTS IN THE MODULE
  ======================
<CODE,LOW_MEM> 1 (was CODE)
  Relative segment, address: 90AA - 92CD (0x224 bytes), align: 1
  Segment part 5.
           ENTRY                   ADDRESS         REF BY
           =====                   =======         ======
           _Stoxflt                90AA            __iar_Stodx (?xstod)
               calls direct
    -------------------------------------------------------------------------
<CODE> 1 (was CODE)
  Relative segment, address: 00012E62 - 00012E6B (0xa bytes), align: 1
  Segment part 6.             Intra module refs:   _Stoxflt
    -------------------------------------------------------------------------
<CODE> 1 (was CODE)
  Relative segment, address: 00012E80 - 00012E81 (0x2 bytes), align: 1
  Segment part 7.             Intra module refs:   _Stoxflt
    -------------------------------------------------------------------------
<CODE> 1 (was CODE)
  Relative segment, address: 00012E82 - 00012E89 (0x8 bytes), align: 1
  Segment part 8.             Intra module refs:   Segment part 7
                                                   _Stoxflt
    -------------------------------------------------------------------------
<CODE> 1 (was CODE)
  Relative segment, address: 000129E0 - 000129EF (0x10 bytes), align: 1
  Segment part 9.             Intra module refs:   _Stoxflt
    -------------------------------------------------------------------------
<CODE> 1 (was CODE)
  Relative segment, address: 00012A70 - 00012A7F (0x10 bytes), align: 1
  Segment part 10.            Intra module refs:   _Stoxflt
    -------------------------------------------------------------------------
DATA16_C
  Relative segment, address: 69D0 - 69E6 (0x17 bytes), align: 0
  Segment part 2.             Intra module refs:   _Stoxflt
    -------------------------------------------------------------------------
DATA16_C
  Relative segment, address: 69E7 - 69FC (0x16 bytes), align: 0
  Segment part 3.             Intra module refs:   Segment part 9

    -------------------------------------------------------------------------
  LIBRARY MODULE, NAME : ?xttotm

  SEGMENTS IN THE MODULE
  ======================
DATA16_C
  Relative segment, address: 541E - 5435 (0x18 bytes), align: 1
  Segment part 2.             Intra module refs:   __iar_Daysto32
                                                   __iar_Ttotm32
    -------------------------------------------------------------------------
DATA16_C
  Relative segment, address: 5436 - 544D (0x18 bytes), align: 1
  Segment part 3.             Intra module refs:   __iar_Daysto32
                                                   __iar_Ttotm32
    -------------------------------------------------------------------------
DATA16_Z
  Relative segment, address: 22C6 - 22D7 (0x12 bytes), align: 1
  Segment part 4.             Intra module refs:   __iar_Ttotm32
    -------------------------------------------------------------------------
<CODE> 1 (was CODE)
  Relative segment, address: 00011A7A - 00011AB7 (0x3e bytes), align: 1
  Segment part 6.             Intra module refs:   __iar_Ttotm32
           ENTRY                   ADDRESS         REF BY
           =====                   =======         ======
           __iar_Daysto32          00011A7A        __iar_Isdst32 (?xisdst)
                                                   __mktime32 (?mktime)
               calls direct
    -------------------------------------------------------------------------
<CODE,LOW_MEM> 1 (was CODE)
  Relative segment, address: A6DE - A83D (0x160 bytes), align: 1
  Segment part 7.
           ENTRY                   ADDRESS         REF BY
           =====                   =======         ======
           __iar_Ttotm32           A6DE            __mktime32 (?mktime)
               calls direct
    -------------------------------------------------------------------------
<CODE> 1 (was CODE)
  Relative segment, address: 00012C7C - 00012C89 (0xe bytes), align: 1
  Segment part 8.             Intra module refs:   __iar_Ttotm32

    -------------------------------------------------------------------------
  LIBRARY MODULE, NAME : ?xwctomb

  SEGMENTS IN THE MODULE
  ======================
<CODE> 1 (was CODE)
  Relative segment, address: 0001250C - 00012525 (0x1a bytes), align: 1
  Segment part 2.
           ENTRY                   ADDRESS         REF BY
           =====                   =======         ======
           _Wctomb                 0001250C        _PutstrFull (?xprintffull)
               calls direct

    -------------------------------------------------------------------------
  LIBRARY MODULE, NAME : ?xxmemxfree

  SEGMENTS IN THE MODULE
  ======================
<CODE> 1 (was CODE)
  Relative segment, address: 00010B36 - 00010BBB (0x86 bytes), align: 1
  Segment part 2.
           ENTRY                   ADDRESS         REF BY
           =====                   =======         ======
           __data16_free           00010B36        _PutstrFull (?xprintffull)
                                                   __data16_findmem (?xxmemxmalloc)
                                                   __iar_Isdst32 (?xisdst)
                                                   __iar_Tls_dtor__Isdst_rules (?xisdst)
                                                   free (?free)

    -------------------------------------------------------------------------
  LIBRARY MODULE, NAME : ?xxmemxmalloc

  SEGMENTS IN THE MODULE
  ======================
DATA16_Z
  Relative segment, address: 22D8 - 22DB (0x4 bytes), align: 1
  Segment part 2.             Intra module refs:   __data16_findmem
                                                   __data16_malloc
           ENTRY                   ADDRESS         REF BY
           =====                   =======         ======
           __data16_Aldata         22D8            __data16_free (?xxmemxfree)
    -------------------------------------------------------------------------
<CODE> 1 (was CODE)
  Relative segment, address: 0001126E - 000112D1 (0x64 bytes), align: 1
  Segment part 4.             Intra module refs:   __data16_malloc
           LOCAL                   ADDRESS         
           =====                   =======         
           __data16_findmem        0001126E 
               calls direct
    -------------------------------------------------------------------------
<CODE> 1 (was CODE)
  Relative segment, address: 00010F1A - 00010F8B (0x72 bytes), align: 1
  Segment part 6.
           ENTRY                   ADDRESS         REF BY
           =====                   =======         ======
           __data16_malloc         00010F1A        _PutstrFull (?xprintffull)
                                                   malloc (?malloc)
               calls direct




                ****************************************
                *                                      *
                *            MODULE SUMMARY            *
                *                                      *
                ****************************************

Module                           CODE      DATA      CONST
------                           ----      ----      -----
                                (Rel)  (Rel)  (Abs)  (Rel)
?Cast32f32i                       146
?ClearMemoryBytes                  16
?ClearMemoryWords                  16
?CopyMemoryBytes                   16
?DivMod32s                         64
?DivMod32u                         48
?DivMod816s                        48
?DivMod816u                        24
?FLT_EQ                            48
?FLT_Extract                       76
?FLT_GE                            86
?FLT_LT                            82
?Mul16to32sHw                      28
?Mul32Hw32                         36
?Mul32fHw32                       278
?Mul8Hw                            32
?ShiftLeft32                       18
?ShiftLeft32_8n                    12
?ShiftRight32s                     18
?__dbg_break                        2
?__exit                            20
?_exit                             12
?abort                             16
?atexit                            10
?atoi                              10
?cppinit                          132      2
?cstart                            40
?div                               22
?div64i                           192
?errno                                     2
?exit                               4
?free                               4
?getzone                            6                    2
?isdigit                           14
?isxxx                             40
?localeconv                        16     50            60
?localtim                         174      6
?malloc                             4
?memchr                            20
  + shared                          4
?memcpy                            18
?memset                            18
?memzero                           20
?mktime                           412
?reset_vector                       2
?setlocale                         40     30             5
?snprintf                          80
?sprintf                           60
?strcat                            24
?strchr                            14
?strcmp                            30
?strcpy                            16
?strcspn                           34
?strlen                            18
?strncpy                           34
?strrchr                           18
?strspn                            34
?strstr                            52
?strtok                            76      2
?tolower                           20
?xdscale                          142
?xdtento                          396                   24
?xdunscal                          70
?xencoding_sb                      82
?xgetdst                          332
?xgetmemchunk                      30      2
?xgettime                          80
?xisdst                           382      5
?xlocale_c                        110
?xlog_small                       336
?xmbcurmax                          8
?xmbtowc                           30
?xprintffull                    4 514                   25
?xsnprout                          26
?xsprout                           12
?xstod                            372
?xstoflt                          582
?xstol                            170
?xstopfx                          314
?xstoul                           394                   74
?xstoxflt                         600                   45
?xttotm                           428     18            48
?xwctomb                           26
?xxmemxfree                       134
?xxmemxmalloc                     214      4
TI_MSPBoot_Mgr_Vectors_FR57xx      24      3      2
TI_MSPBoot_VecRed_FR5969          148
_Add32f                           356
_Cast32fto32s                      50
_Cast32fto32u                      12
_Div32f                           304
alarms                            812                  210
apn_config                        332                   49
battery                           324                   94
  + shared                                       10
buzzer                                            6
config                          3 104     85           515
crc                                24             4
debug                             894    604     10    937
  + shared                                        6
device_alarms                     704      1           314
encode                            318                   65
events                          1 496      2           196
fatdata
  + shared                                        2
file_system                       266                   98
fridge_data                       982      5           206
fridge_uart                       166    514     16
globals                                   18             8
hardware_buttons                                 10
  + shared                                        2
i2c                                 4
main_system                       358     25      6    160
  + shared                                       14
modem                           2 806     96         1 134
modem_uart                        338    456     24      3
ota                               998      7           353
packet_format                   1 876                  543
pmm                                26
rtc                               468     20      2      4
rtc_c                             382
sms                               776     85           295
spi_flash                       1 662    312     24    189
state_machine                     678      2             2
stringutils                       670                   13
temperature                     2 446     79     30    124
timer                               4      4      6
watchdog                            8
N/A (command line)                       320
N/A (alignment)
------                         ------  -----    ---  -----
Total:                         36 454  2 759    174  5 795


                ****************************************
                *                                      *
                *      SEGMENTS IN ADDRESS ORDER       *
                *                                      *
                ****************************************


SEGMENT              SPACE    START ADDRESS   END ADDRESS     SIZE  TYPE  ALIGN
=======              =====    =============   ===========     ====  ====  =====
DATA16_AN                              0120 - 0121               2   rel    0
                                       0130 - 0131               2 
                                       0152 - 0155               4 
                                       015C - 015D               2 
                                       01B0 - 01B1               2 
                                       0200 - 0205               6 
                                       020A - 020D               4 
                                       021A - 021B               2 
                                       021E - 0227               A 
                                       022A - 022F               6 
                                       023A - 023B               2 
                                       023E - 0247               A 
                                       024A - 024D               4 
                                       0260 - 0265               6 
                                       026A - 026D               4 
                                       03C0 - 03C3               4 
                                       03D2 - 03D3               2 
                                       0400 - 0403               4 
                                       0412 - 0413               2 
                                       04AE - 04AF               2 
                                       05A0 - 05A1               2 
                                       05A8 - 05A9               2 
                                       05C0 - 05C1               2 
                                       05C6 - 05CF               A 
                                       05DA - 05DB               2 
                                       05DE - 05E1               4 
                                       05E6 - 05EF               A 
                                       05FA - 05FB               2 
                                       05FE - 0601               4 
                                       0606 - 060F               A 
                                       061A - 061B               2 
                                       061E - 061F               2 
                                       06C0 - 06C1               2 
                                       06C6 - 06C7               2 
                                       06CC - 06CF               4 
                                       06EC - 06EF               4 
                                       0700 - 0701               2 
                                       0708 - 0709               2 
                                       0800 - 0807               8 
                                       0812 - 0813               2 
                                       0818 - 0819               2 
                                       0834 - 0837               4 
                                       083E - 083F               2 
                                       086E - 086F               2 
                                       0874 - 0877               4 
                                       087E - 087F               2 
DATA16_I                               2132 - 21DD              AC   rel    1
DATA16_Z                               21DE - 2AB5             8D8   rel    1
DATA16_N                               2AB6 - 2AB8               3   rel    1
DATA16_HEAP                            2ABA - 2B59              A0   rel    1
CODE_I                                    2B5A                       rel    1
DATA20_N                                  2B5A                       rel    1
DATA20_Z                                  2B5A                       rel    1
DATA20_I                                  2B5A                       rel    1
STATE_MACHINE                          4000 - 40D7              D8   rel    1
CALIBRATION                               40D8                       dse    0
CONFIGURATION                          40D8 - 437F             2A8   rel    1
XBIGDATA                               4380 - 4475              F6   rel    1
AGGREGATE                              4476 - 4529              B4   rel    0
CSTACK                                 5360 - 53FF              A0   rel    1
DATA16_C                               5406 - 69FC            15F7   rel    1
DATA16_ID                              69FE - 6AA9              AC   rel    1
CSTART                                 6AAA - 6AD1              28   rel    1
ISR_CODE                               6AD2 - 6D21             250   rel    1
<CODE,LOW_MEM> 1                       6D22 - C369            5648   rel    1
APP_PROXY_VECTORS                      C36A - C3FD              94   rel    1
RESET                                  C3FE - C3FF               2   rel    1
<CODE> 1                           00010000 - 00012FE5        2FE6   rel    1
DATA20_C                                00012FE6                     rel    1
DATA20_ID                               00012FE6                     rel    1
CODE_ID                                 00012FE6                     rel    1

                ****************************************
                *                                      *
                *        END OF CROSS REFERENCE        *
                *                                      *
                ****************************************

 36 454 bytes of CODE  memory
  2 759 bytes of DATA  memory (+ 174 absolute )
  5 795 bytes of CONST memory

Errors: none
Warnings: 56

